
Nios2_Actor.elf:     file format elf32-littlenios2
Nios2_Actor.elf
architecture: nios2:r1, flags 0x00000112:
EXEC_P, HAS_SYMS, D_PAGED
start address 0x00000224

Program Header:
    LOAD off    0x00001000 vaddr 0x00000000 paddr 0x00000000 align 2**12
         filesz 0x00000020 memsz 0x00000020 flags r-x
    LOAD off    0x00001020 vaddr 0x00000020 paddr 0x00000020 align 2**12
         filesz 0x00010bd4 memsz 0x00010bd4 flags r-x
    LOAD off    0x00011bf4 vaddr 0x00010bf4 paddr 0x000127cc align 2**12
         filesz 0x00001bd8 memsz 0x00001bd8 flags rw-
    LOAD off    0x000003a4 vaddr 0x000143a4 paddr 0x000143a4 align 2**12
         filesz 0x00000000 memsz 0x0000015c flags rw-

Sections:
Idx Name          Size      VMA       LMA       File off  Algn
  0 .entry        00000020  00000000  00000000  00001000  2**5
                  CONTENTS, ALLOC, LOAD, READONLY, CODE
  1 .exceptions   00000204  00000020  00000020  00001020  2**2
                  CONTENTS, ALLOC, LOAD, READONLY, CODE
  2 .text         00010354  00000224  00000224  00001224  2**2
                  CONTENTS, ALLOC, LOAD, READONLY, CODE
  3 .rodata       0000067c  00010578  00010578  00011578  2**2
                  CONTENTS, ALLOC, LOAD, READONLY, DATA
  4 .rwdata       00001bd8  00010bf4  000127cc  00011bf4  2**2
                  CONTENTS, ALLOC, LOAD, DATA, SMALL_DATA
  5 .bss          0000015c  000143a4  000143a4  000143a4  2**2
                  ALLOC, SMALL_DATA
  6 .onchip_memory2_0 00000000  00014500  00014500  000137cc  2**0
                  CONTENTS
  7 .comment      0000002d  00000000  00000000  000137cc  2**0
                  CONTENTS, READONLY
  8 .debug_aranges 00001090  00000000  00000000  00013800  2**3
                  CONTENTS, READONLY, DEBUGGING, OCTETS
  9 .debug_info   0002d888  00000000  00000000  00014890  2**0
                  CONTENTS, READONLY, DEBUGGING, OCTETS
 10 .debug_abbrev 0000be40  00000000  00000000  00042118  2**0
                  CONTENTS, READONLY, DEBUGGING, OCTETS
 11 .debug_line   00010f53  00000000  00000000  0004df58  2**0
                  CONTENTS, READONLY, DEBUGGING, OCTETS
 12 .debug_frame  00002658  00000000  00000000  0005eeac  2**2
                  CONTENTS, READONLY, DEBUGGING, OCTETS
 13 .debug_str    00002950  00000000  00000000  00061504  2**0
                  CONTENTS, READONLY, DEBUGGING, OCTETS
 14 .debug_alt_sim_info 00000010  00000000  00000000  00063e54  2**2
                  CONTENTS, READONLY, DEBUGGING, OCTETS
 15 .debug_ranges 00000070  00000000  00000000  00063e68  2**3
                  CONTENTS, READONLY, DEBUGGING, OCTETS
 16 .debug_line_str 00002205  00000000  00000000  00063ed8  2**0
                  CONTENTS, READONLY, DEBUGGING, OCTETS
 17 .debug_loclists 0001506b  00000000  00000000  000660dd  2**0
                  CONTENTS, READONLY, DEBUGGING, OCTETS
 18 .debug_rnglists 00001791  00000000  00000000  0007b148  2**0
                  CONTENTS, READONLY, DEBUGGING, OCTETS
 19 .thread_model 00000003  00000000  00000000  0007feee  2**0
                  CONTENTS, READONLY
 20 .cpu          0000000c  00000000  00000000  0007fef1  2**0
                  CONTENTS, READONLY
 21 .qsys         00000001  00000000  00000000  0007fefd  2**0
                  CONTENTS, READONLY
 22 .simulation_enabled 00000001  00000000  00000000  0007fefe  2**0
                  CONTENTS, READONLY
 23 .stderr_dev   0000000b  00000000  00000000  0007feff  2**0
                  CONTENTS, READONLY
 24 .stdin_dev    0000000b  00000000  00000000  0007ff0a  2**0
                  CONTENTS, READONLY
 25 .stdout_dev   0000000b  00000000  00000000  0007ff15  2**0
                  CONTENTS, READONLY
 26 .sopc_system_name 0000000f  00000000  00000000  0007ff20  2**0
                  CONTENTS, READONLY
 27 .quartus_project_dir 00000052  00000000  00000000  0007ff2f  2**0
                  CONTENTS, READONLY
 28 .jdi          00005876  00000000  00000000  0007ff81  2**0
                  CONTENTS, READONLY
 29 .sopcinfo     00049fac  00000000  00000000  000857f7  2**0
                  CONTENTS, READONLY
SYMBOL TABLE:
00000000 l    d  .entry	00000000 .entry
00000020 l    d  .exceptions	00000000 .exceptions
00000224 l    d  .text	00000000 .text
00010578 l    d  .rodata	00000000 .rodata
00010bf4 l    d  .rwdata	00000000 .rwdata
000143a4 l    d  .bss	00000000 .bss
00014500 l    d  .onchip_memory2_0	00000000 .onchip_memory2_0
00000000 l    d  .comment	00000000 .comment
00000000 l    d  .debug_aranges	00000000 .debug_aranges
00000000 l    d  .debug_info	00000000 .debug_info
00000000 l    d  .debug_abbrev	00000000 .debug_abbrev
00000000 l    d  .debug_line	00000000 .debug_line
00000000 l    d  .debug_frame	00000000 .debug_frame
00000000 l    d  .debug_str	00000000 .debug_str
00000000 l    d  .debug_alt_sim_info	00000000 .debug_alt_sim_info
00000000 l    d  .debug_ranges	00000000 .debug_ranges
00000000 l    d  .debug_line_str	00000000 .debug_line_str
00000000 l    d  .debug_loclists	00000000 .debug_loclists
00000000 l    d  .debug_rnglists	00000000 .debug_rnglists
00000000 l    df *ABS*	00000000 crt0.o
0000025c l       .text	00000000 alt_after_alt_main
00000000 l    df *ABS*	00000000 alt_irq_handler.c
00000000 l    df *ABS*	00000000 alt_instruction_exception_entry.c
00000000 l    df *ABS*	00000000 hello_world.c
00000000 l    df *ABS*	00000000 printf.c
00000000 l    df *ABS*	00000000 puts.c
00000000 l    df *ABS*	00000000 strlen.c
00000000 l    df *ABS*	00000000 vfprintf.c
000105e4 l     O .rodata	00000010 zeroes.0
00002978 l     F .text	000000c4 __sbprintf
000105f4 l     O .rodata	00000010 blanks.1
00000000 l    df *ABS*	00000000 wsetup.c
00000000 l    df *ABS*	00000000 dtoa.c
00002b88 l     F .text	00000218 quorem
00000000 l    df *ABS*	00000000 fflush.c
00000000 l    df *ABS*	00000000 findfp.c
00004874 l     F .text	00000008 __fp_lock
00004888 l     F .text	00000008 __fp_unlock
00004890 l     F .text	00000168 __sinit.part.0
00000000 l    df *ABS*	00000000 mallocr.c
00000000 l    df *ABS*	00000000 fvwrite.c
00000000 l    df *ABS*	00000000 fwalk.c
00000000 l    df *ABS*	00000000 impure.c
00010bf4 l     O .rwdata	00000424 impure_data
00000000 l    df *ABS*	00000000 localeconv.c
00000000 l    df *ABS*	00000000 makebuf.c
00000000 l    df *ABS*	00000000 mallocr.c
00000000 l    df *ABS*	00000000 memchr.c
00000000 l    df *ABS*	00000000 memcpy.c
00000000 l    df *ABS*	00000000 memmove.c
00000000 l    df *ABS*	00000000 memset.c
00000000 l    df *ABS*	00000000 mprec.c
000106a8 l     O .rodata	0000000c p05.0
00000000 l    df *ABS*	00000000 mallocr.c
00000000 l    df *ABS*	00000000 sbrkr.c
00000000 l    df *ABS*	00000000 stdio.c
00000000 l    df *ABS*	00000000 vfprintf.c
00007de8 l     F .text	000000f4 __sprint_r.part.0
000107cc l     O .rodata	00000010 zeroes.0
00009190 l     F .text	000000c4 __sbprintf
000107dc l     O .rodata	00000010 blanks.1
00000000 l    df *ABS*	00000000 writer.c
00000000 l    df *ABS*	00000000 closer.c
00000000 l    df *ABS*	00000000 assert.c
00000000 l    df *ABS*	00000000 mallocr.c
00000000 l    df *ABS*	00000000 errno.c
00000000 l    df *ABS*	00000000 fclose.c
00000000 l    df *ABS*	00000000 fiprintf.c
00000000 l    df *ABS*	00000000 fputwc.c
00000000 l    df *ABS*	00000000 fstatr.c
00000000 l    df *ABS*	00000000 int_errno.c
00000000 l    df *ABS*	00000000 isattyr.c
00000000 l    df *ABS*	00000000 locale.c
00000000 l    df *ABS*	00000000 lseekr.c
00000000 l    df *ABS*	00000000 mbtowc_r.c
00000000 l    df *ABS*	00000000 readr.c
00000000 l    df *ABS*	00000000 strcmp.c
00000000 l    df *ABS*	00000000 vfiprintfr_1.c
00000000 l    df *ABS*	00000000 wbuf.c
00000000 l    df *ABS*	00000000 wcrtomb.c
00000000 l    df *ABS*	00000000 wctomb_r.c
00000000 l    df *ABS*	00000000 abort.c
00000000 l    df *ABS*	00000000 ctype_.c
00000000 l    df *ABS*	00000000 signal.c
00000000 l    df *ABS*	00000000 signalr.c
00000000 l    df *ABS*	00000000 libgcc2.c
00000000 l    df *ABS*	00000000 libgcc2.c
00000000 l    df *ABS*	00000000 lib2-divmod.c
00000000 l    df *ABS*	00000000 lib2-mul.c
00000000 l    df *ABS*	00000000 adddf3.c
00000000 l    df *ABS*	00000000 divdf3.c
00000000 l    df *ABS*	00000000 eqdf2.c
00000000 l    df *ABS*	00000000 gedf2.c
00000000 l    df *ABS*	00000000 ledf2.c
00000000 l    df *ABS*	00000000 muldf3.c
00000000 l    df *ABS*	00000000 subdf3.c
00000000 l    df *ABS*	00000000 unorddf2.c
00000000 l    df *ABS*	00000000 fixdfsi.c
00000000 l    df *ABS*	00000000 floatsidf.c
00000000 l    df *ABS*	00000000 floatunsidf.c
00000000 l    df *ABS*	00000000 libgcc2.c
00000000 l    df *ABS*	00000000 libgcc2.c
00000000 l    df *ABS*	00000000 alt_close.c
0000d940 l     F .text	0000003c alt_get_errno
00000000 l    df *ABS*	00000000 alt_dev.c
0000da58 l     F .text	0000002c alt_dev_null_write
00000000 l    df *ABS*	00000000 alt_errno.c
00000000 l    df *ABS*	00000000 alt_exit.c
00000000 l    df *ABS*	00000000 alt_fstat.c
0000dac0 l     F .text	0000003c alt_get_errno
00000000 l    df *ABS*	00000000 alt_getpid.c
00000000 l    df *ABS*	00000000 alt_isatty.c
0000dbd8 l     F .text	0000003c alt_get_errno
00000000 l    df *ABS*	00000000 alt_kill.c
0000dcc4 l     F .text	0000003c alt_get_errno
00000000 l    df *ABS*	00000000 alt_load.c
0000ddf0 l     F .text	00000068 alt_load_section
00000000 l    df *ABS*	00000000 alt_lseek.c
0000dedc l     F .text	0000003c alt_get_errno
00000000 l    df *ABS*	00000000 alt_main.c
00000000 l    df *ABS*	00000000 alt_malloc_lock.c
00000000 l    df *ABS*	00000000 alt_read.c
0000e0bc l     F .text	0000003c alt_get_errno
00000000 l    df *ABS*	00000000 alt_release_fd.c
00000000 l    df *ABS*	00000000 alt_sbrk.c
000127bc l     O .rwdata	00000004 heap_end
00000000 l    df *ABS*	00000000 alt_write.c
0000e328 l     F .text	0000003c alt_get_errno
00000000 l    df *ABS*	00000000 alt_sys_init.c
0000e468 l     F .text	00000034 alt_dev_reg
00011734 l     O .rwdata	00001060 jtag_uart_0
00000000 l    df *ABS*	00000000 altera_avalon_fifo_util.c
00000000 l    df *ABS*	00000000 altera_avalon_jtag_uart_fd.c
00000000 l    df *ABS*	00000000 altera_avalon_jtag_uart_init.c
0000ec44 l     F .text	00000214 altera_avalon_jtag_uart_irq
0000ee58 l     F .text	000000a8 altera_avalon_jtag_uart_timeout
00000000 l    df *ABS*	00000000 altera_avalon_jtag_uart_ioctl.c
00000000 l    df *ABS*	00000000 altera_avalon_jtag_uart_read.c
00000000 l    df *ABS*	00000000 altera_avalon_jtag_uart_write.c
00000000 l    df *ABS*	00000000 alt_alarm_start.c
00000000 l    df *ABS*	00000000 alt_dcache_flush_all.c
00000000 l    df *ABS*	00000000 alt_dev_llist_insert.c
0000f624 l     F .text	0000003c alt_get_errno
00000000 l    df *ABS*	00000000 alt_do_ctors.c
00000000 l    df *ABS*	00000000 alt_do_dtors.c
00000000 l    df *ABS*	00000000 alt_icache_flush_all.c
00000000 l    df *ABS*	00000000 alt_iic.c
00000000 l    df *ABS*	00000000 alt_iic_isr_register.c
00000000 l    df *ABS*	00000000 alt_io_redirect.c
0000fa88 l     F .text	000000d4 alt_open_fd
00000000 l    df *ABS*	00000000 alt_irq_vars.c
00000000 l    df *ABS*	00000000 alt_open.c
0000fbd8 l     F .text	0000003c alt_get_errno
0000fc14 l     F .text	000000dc alt_file_locked
00000000 l    df *ABS*	00000000 alt_tick.c
00000000 l    df *ABS*	00000000 altera_nios2_gen2_irq.c
00000000 l    df *ABS*	00000000 alt_find_dev.c
00000000 l    df *ABS*	00000000 alt_find_file.c
00000000 l    df *ABS*	00000000 alt_get_fd.c
00000000 l    df *ABS*	00000000 atexit.c
00000000 l    df *ABS*	00000000 exit.c
00000000 l    df *ABS*	00000000 memcmp.c
00000000 l    df *ABS*	00000000 __atexit.c
00000000 l    df *ABS*	00000000 __call_atexit.c
000143d4 g     O .bss	00000004 alt_instruction_exception_handler
00007510 g     F .text	00000070 _mprec_log10
000075fc g     F .text	00000060 __any_on
000098bc g     F .text	00000058 _isatty_r
000106b4 g     O .rodata	00000028 __mprec_tinytens
0000dff8 g     F .text	0000007c alt_main
00000334 g     F .text	000000d0 _puts_r
00014400 g     O .bss	00000100 alt_irq
00009a08 g     F .text	00000064 _lseek_r
0000e7ac g     F .text	00000058 altera_avalon_fifo_write_almostfull
000127cc g       *ABS*	00000000 __flash_rwdata_start
0000c2a8 g     F .text	00000094 .hidden __eqdf2
00014500 g       *ABS*	00000000 __alt_heap_start
0000a344 g     F .text	00000060 _kill_r
000002fc g     F .text	00000038 printf
00009d3c g     F .text	0000006c _wcrtomb_r
00009ee0 g     F .text	00000090 _signal_r
00007d84 g     F .text	0000005c __sseek
00004bb8 g     F .text	00000010 __sinit
00009bdc g     F .text	00000148 __swbuf_r
00009914 g     F .text	00000074 _setlocale_r
000049f8 g     F .text	00000078 __sfmoreglue
0000e098 g     F .text	00000024 __malloc_unlock
00006210 g     F .text	00000128 memmove
0000e528 g     F .text	00000098 altera_avalon_fifo_init
00004ba4 g     F .text	00000014 _cleanup
0000e85c g     F .text	00000058 altera_avalon_fifo_write_fifo
00006478 g     F .text	000000a4 _Balloc
0000c33c g     F .text	000000fc .hidden __gtdf2
00010020 g     F .text	00000024 altera_nios2_gen2_irq_init
000094f0 g     F .text	0000000c __errno
00000000 g     F .entry	0000000c __reset
00005614 g     F .text	00000008 __localeconv_l
0000e9f8 g     F .text	00000028 altera_avalon_fifo_read_backpressure
00000020 g       *ABS*	00000000 __flash_exceptions_start
0000985c g     F .text	00000060 _fstat_r
000143b0 g     O .bss	00000004 errno
00007cfc g     F .text	00000008 __seofread
000143bc g     O .bss	00000004 alt_argv
0001a794 g       *ABS*	00000000 _gp
0000dbb8 g     F .text	00000020 getpid
0000e6f4 g     F .text	00000060 altera_avalon_fifo_clear_event
000115b4 g     O .rwdata	00000180 alt_fd_list
00010044 g     F .text	00000090 alt_find_dev
00006110 g     F .text	00000100 memcpy
0000487c g     F .text	0000000c _cleanup_r
0000d7a8 g     F .text	000000b8 .hidden __floatsidf
0000fb5c g     F .text	0000007c alt_io_redirect
0000c438 g     F .text	000000f8 .hidden __ltdf2
00010578 g       *ABS*	00000000 __DTOR_END__
00000404 g     F .text	00000010 puts
00010294 g     F .text	00000074 alt_exception_cause_generated_bad_addr
0000746c g     F .text	000000a4 __ratio
00009174 g     F .text	0000001c __vfiprintf_internal
0000f05c g     F .text	00000220 altera_avalon_jtag_uart_read
000002cc g     F .text	00000030 _printf_r
00000000 g       *ABS*	00000000 __alt_mem_onchip_memory2_0
0000afd0 g     F .text	00000064 .hidden __udivsi3
0000dc14 g     F .text	000000b0 isatty
00009f70 g     F .text	000000b0 _raise_r
00009310 g     F .text	00000064 __assert_func
00010704 g     O .rodata	000000c8 __mprec_tens
000143ac g     O .bss	00000004 __malloc_top_pad
0000a3a4 g     F .text	00000004 _getpid_r
0000561c g     F .text	0000000c _localeconv_r
000068f0 g     F .text	000000b0 __i2b
0000502c g     F .text	000004a8 __sfvwrite_r
0000a020 g     F .text	000000bc __sigtramp_r
00007c50 g     F .text	00000058 _sbrk_r
00009abc g     F .text	00000064 _read_r
000127b4 g     O .rwdata	00000004 alt_max_fd
000094fc g     F .text	000000f8 _fclose_r
000047f0 g     F .text	00000084 fflush
000143a8 g     O .bss	00000004 __malloc_max_sbrked_mem
0000b0b8 g     F .text	00000904 .hidden __adddf3
00007214 g     F .text	00000100 __b2d
0000a980 g     F .text	0000055c .hidden __umoddi3
0000df18 g     F .text	000000e0 lseek
00012794 g     O .rwdata	00000004 _global_impure_ptr
0000765c g     F .text	000005f4 _realloc_r
00014500 g       *ABS*	00000000 __bss_end
0000f9a0 g     F .text	000000e8 alt_iic_isr_register
0000fef4 g     F .text	0000012c alt_tick
0000a3a8 g     F .text	000005d8 .hidden __udivdi3
000097c0 g     F .text	00000024 _fputwc_r
000106dc g     O .rodata	00000028 __mprec_bigtens
00006694 g     F .text	00000138 __s2b
00009e6c g     F .text	00000018 abort
0000d860 g     F .text	00000090 .hidden __floatunsidf
00006f2c g     F .text	00000058 __mcmp
00004bd8 g     F .text	00000014 __fp_lock_all
0000f954 g     F .text	0000004c alt_ic_irq_enabled
0000fe50 g     F .text	000000a4 alt_alarm_stop
000143c4 g     O .bss	00000004 alt_irq_active
000000fc g     F .exceptions	000000c8 alt_irq_handler
0001158c g     O .rwdata	00000028 alt_dev_null
0000f604 g     F .text	00000020 alt_dcache_flush_all
000067cc g     F .text	00000074 __hi0bits
0000d728 g     F .text	00000080 .hidden __fixdfsi
0000e754 g     F .text	00000058 altera_avalon_fifo_write_ienable
000127cc g       *ABS*	00000000 __ram_rwdata_end
0000e664 g     F .text	0000002c altera_avalon_fifo_read_almostempty
000127ac g     O .rwdata	00000008 alt_dev_list
0000e364 g     F .text	00000104 write
00010bf4 g       *ABS*	00000000 __ram_rodata_end
0000dafc g     F .text	000000bc fstat
0000dd00 g     F .text	000000f0 kill
0000c438 g     F .text	000000f8 .hidden __ledf2
00006c64 g     F .text	00000140 __pow5mult
00007ef4 g     F .text	00001280 ___vfiprintf_internal_r
0000b034 g     F .text	0000005c .hidden __umodsi3
00014500 g       *ABS*	00000000 end
0000eb84 g     F .text	000000c0 altera_avalon_jtag_uart_init
000001c4 g     F .exceptions	00000060 alt_instruction_exception_entry
0000e690 g     F .text	0000003c altera_avalon_fifo_read_event
00010578 g       *ABS*	00000000 __CTOR_LIST__
00025800 g       *ABS*	00000000 __alt_stack_pointer
0000d8f0 g     F .text	00000050 .hidden __clzsi2
0000f27c g     F .text	00000228 altera_avalon_jtag_uart_write
00004bc8 g     F .text	00000004 __sfp_lock_acquire
0000e920 g     F .text	0000004c altera_avalon_fifo_read_fifo
00006014 g     F .text	000000fc memchr
000004ac g     F .text	000024b0 ___vfprintf_internal_r
00004d24 g     F .text	00000308 _free_r
00010940 g     O .rodata	00000180 _ctype_b
00009988 g     F .text	0000000c __locale_mb_cur_max
00010458 g     F .text	00000120 __call_exitprocs
0001279c g     O .rwdata	00000004 __malloc_sbrk_base
00000224 g     F .text	0000003c _start
000143c8 g     O .bss	00000004 _alt_tick_rate
00006da4 g     F .text	00000188 __lshift
000143cc g     O .bss	00000008 _alt_nticks
0000a190 g     F .text	00000098 signal
0000e0f8 g     F .text	00000108 read
0000e4d8 g     F .text	00000050 alt_sys_init
000103c8 g     F .text	00000090 __register_exitproc
000069a0 g     F .text	000002c4 __multiply
0000ef00 g     F .text	00000068 altera_avalon_jtag_uart_close
0000b090 g     F .text	00000028 .hidden __mulsi3
00010bf4 g       *ABS*	00000000 __ram_rwdata_start
00010578 g       *ABS*	00000000 __ram_rodata_start
000143d8 g     O .bss	00000028 __malloc_current_mallinfo
00007314 g     F .text	00000158 __d2b
0000ea20 g     F .text	00000060 altera_avalon_jtag_uart_read_fd
000101dc g     F .text	000000b8 alt_get_fd
000092b8 g     F .text	00000058 _close_r
00010350 g     F .text	00000078 memcmp
0000eae0 g     F .text	00000050 altera_avalon_jtag_uart_close_fd
00014500 g       *ABS*	00000000 __alt_stack_base
0000eb30 g     F .text	00000054 altera_avalon_jtag_uart_ioctl_fd
00002a3c g     F .text	0000014c __swsetup_r
0000e5c0 g     F .text	0000003c altera_avalon_fifo_read_status
0000b9bc g     F .text	000008ec .hidden __divdf3
00004a70 g     F .text	00000134 __sfp
00007580 g     F .text	0000007c __copybits
00011018 g     O .rwdata	00000408 __malloc_av_
00004bd4 g     F .text	00000004 __sinit_lock_release
0000c530 g     F .text	00000808 .hidden __muldf3
00007ca8 g     F .text	00000054 __sread
0000e9cc g     F .text	0000002c altera_avalon_fifo_read_other_info
000100d4 g     F .text	00000108 alt_find_file
0000f660 g     F .text	000000a8 alt_dev_llist_insert
0000e074 g     F .text	00000024 __malloc_lock
0000e270 g     F .text	000000b8 sbrk
00004790 g     F .text	00000060 _fflush_r
00009388 g     F .text	00000168 _calloc_r
000143a4 g       *ABS*	00000000 __bss_start
00006338 g     F .text	00000140 memset
00000260 g     F .text	0000006c main
000143c0 g     O .bss	00000004 alt_envp
000143a4 g     O .bss	00000004 __malloc_max_total_mem
0000ea80 g     F .text	00000060 altera_avalon_jtag_uart_write_fd
0000e6cc g     F .text	00000028 altera_avalon_fifo_read_level
00009d24 g     F .text	00000018 __swbuf
00007de0 g     F .text	00000008 __sclose
00025800 g       *ABS*	00000000 __alt_heap_limit
000095f4 g     F .text	00000010 fclose
00002da0 g     F .text	000017e8 _dtoa_r
00005860 g     F .text	000007b4 _malloc_r
00009e3c g     F .text	00000030 __ascii_wctomb
000127b8 g     O .rwdata	00000004 alt_errno
00009604 g     F .text	00000020 _fiprintf_r
0000a228 g     F .text	00000060 _init_signal
000054d4 g     F .text	00000098 _fwalk
00009a6c g     F .text	0000000c _mbtowc_r
0000aedc g     F .text	00000080 .hidden __divsi3
00004c00 g     F .text	00000124 _malloc_trim_r
00010578 g       *ABS*	00000000 __CTOR_END__
00009b20 g     F .text	000000b8 strcmp
00010578 g       *ABS*	00000000 __flash_rodata_start
00010578 g       *ABS*	00000000 __DTOR_LIST__
0000c2a8 g     F .text	00000094 .hidden __nedf2
0000e49c g     F .text	0000003c alt_irq_init
0000e200 g     F .text	00000070 alt_release_fd
00010ac0 g     O .rodata	00000100 .hidden __clz_tab
000143b4 g     O .bss	00000004 _PathLocale
00010308 g     F .text	00000014 atexit
00009254 g     F .text	00000064 _write_r
00009994 g     F .text	00000074 setlocale
00012798 g     O .rwdata	00000004 _impure_ptr
000143b8 g     O .bss	00000004 alt_argc
00004588 g     F .text	00000208 __sflush_r
0000f76c g     F .text	00000064 _do_dtors
00000020 g       .exceptions	00000000 alt_irq_entry
00009a78 g     F .text	00000044 __ascii_mbtowc
000071b4 g     F .text	00000060 __ulp
00004bec g     F .text	00000014 __fp_unlock_all
000127a4 g     O .rwdata	00000008 alt_fs_list
00000020 g       *ABS*	00000000 __ram_exceptions_start
00005628 g     F .text	0000000c localeconv
000057d4 g     F .text	0000008c __swhatbuf_r
0000e96c g     F .text	00000060 altera_avalon_fifo_write_other_info
0000f7f0 g     F .text	00000050 alt_ic_isr_register
000127cc g       *ABS*	00000000 _edata
00014500 g       *ABS*	00000000 _end
0000965c g     F .text	00000164 __fputwc
00000224 g       *ABS*	00000000 __ram_exceptions_end
0000ef68 g     F .text	000000f4 altera_avalon_jtag_uart_ioctl
0000f8c8 g     F .text	0000008c alt_ic_irq_disable
00007d04 g     F .text	00000080 __swrite
000127a0 g     O .rwdata	00000004 __malloc_trim_threshold
0001031c g     F .text	00000034 exit
00009624 g     F .text	00000038 fiprintf
00009bd8 g     F .text	00000004 _vfiprintf_r
0000556c g     F .text	000000a8 _fwalk_reent
00006f84 g     F .text	00000230 __mdiff
0000af5c g     F .text	00000074 .hidden __modsi3
0000e5fc g     F .text	0000003c altera_avalon_fifo_read_ienable
00025800 g       *ABS*	00000000 __alt_data_end
00000020 g     F .exceptions	00000000 alt_exception
00004bcc g     F .text	00000004 __sfp_lock_release
0001083c g     O .rodata	00000101 _ctype_
0000d6d4 g     F .text	00000054 .hidden __unorddf2
0000da84 g     F .text	0000003c _exit
0000f4a4 g     F .text	00000160 alt_alarm_start
0000e638 g     F .text	0000002c altera_avalon_fifo_read_almostfull
00005634 g     F .text	000001a0 __smakebuf_r
00000414 g     F .text	00000098 strlen
00009e84 g     F .text	0000005c _init_signal_r
0000fcf0 g     F .text	00000160 open
0000e8b4 g     F .text	0000006c altera_avalon_read_fifo
0000c33c g     F .text	000000fc .hidden __gedf2
00009374 g     F .text	00000014 __assert
00007edc g     F .text	00000018 __sprint_r
0000f7d0 g     F .text	00000020 alt_icache_flush_all
000127c0 g     O .rwdata	00000004 alt_priority_mask
0000f840 g     F .text	00000088 alt_ic_irq_enable
0000295c g     F .text	0000001c __vfprintf_internal
00009e30 g     F .text	0000000c _wctomb_r
0000cd38 g     F .text	0000099c .hidden __subdf3
00006840 g     F .text	000000b0 __lo0bits
0000e804 g     F .text	00000058 altera_avalon_fifo_write_almostempty
000127c4 g     O .rwdata	00000008 alt_alarm_list
0000f708 g     F .text	00000064 _do_ctors
0000a288 g     F .text	000000bc __sigtramp
00009da8 g     F .text	00000088 wcrtomb
0000d97c g     F .text	000000dc close
00011420 g     O .rwdata	0000016c __global_locale
0000de58 g     F .text	00000084 alt_load
000097e4 g     F .text	00000078 fputwc
0000a0dc g     F .text	000000b4 raise
00004bd0 g     F .text	00000004 __sinit_lock_acquire
00006540 g     F .text	00000154 __multadd
0000651c g     F .text	00000024 _Bfree



Disassembly of section .entry:

00000000 <__reset>:
 * Jump to the _start entry point in the .text section if reset code
 * is allowed or if optimizing for RTL simulation.
 */
#if defined(ALT_ALLOW_CODE_AT_RESET) || defined(ALT_SIM_OPTIMIZE)
    /* Jump to the _start entry point in the .text section. */
    movhi r1, %hi(_start)
   0:	00400034 	movhi	at,0
    ori r1, r1, %lo(_start)
   4:	08408914 	ori	at,at,548
    jmp r1
   8:	0800683a 	jmp	at
	...

Disassembly of section .exceptions:

00000020 <alt_exception>:

#else /* ALT_EXCEPTION_STACK disabled */
        /* 
         * Reserve space on normal stack for registers about to be pushed.
         */
        addi  sp, sp, -76
  20:	deffed04 	addi	sp,sp,-76
         * documentation for details).
         *
         * Leave a gap in the stack frame at 4(sp) for the muldiv handler to
         * store zero into.
         */
        stw   ra,  0(sp)
  24:	dfc00015 	stw	ra,0(sp)
        stw   r1,   8(sp)
  28:	d8400215 	stw	at,8(sp)
        stw   r2,  12(sp)
  2c:	d8800315 	stw	r2,12(sp)
        stw   r3,  16(sp)
  30:	d8c00415 	stw	r3,16(sp)
        stw   r4,  20(sp)
  34:	d9000515 	stw	r4,20(sp)
        stw   r5,  24(sp)
  38:	d9400615 	stw	r5,24(sp)
        stw   r6,  28(sp)
  3c:	d9800715 	stw	r6,28(sp)
        stw   r7,  32(sp)
  40:	d9c00815 	stw	r7,32(sp)
        rdctl r5, estatus   /* Read early to avoid usage stall */
  44:	000b307a 	rdctl	r5,estatus
        stw   r8,  36(sp)
  48:	da000915 	stw	r8,36(sp)
        stw   r9,  40(sp)
  4c:	da400a15 	stw	r9,40(sp)
        stw   r10, 44(sp)
  50:	da800b15 	stw	r10,44(sp)
        stw   r11, 48(sp)
  54:	dac00c15 	stw	r11,48(sp)
        stw   r12, 52(sp)
  58:	db000d15 	stw	r12,52(sp)
        stw   r13, 56(sp)
  5c:	db400e15 	stw	r13,56(sp)
        stw   r14, 60(sp)
  60:	db800f15 	stw	r14,60(sp)
        stw   r15, 64(sp)
  64:	dbc01015 	stw	r15,64(sp)
        /*
         * ea-4 contains the address of the instruction being executed
         * when the exception occured. For interrupt exceptions, we will
         * will be re-issue the isntruction. Store it in 72(sp)
         */
        stw   r5,  68(sp)  /* estatus */
  68:	d9401115 	stw	r5,68(sp)
        addi  r15, ea, -4  /* instruction that caused exception */
  6c:	ebffff04 	addi	r15,ea,-4
        stw   r15,  72(sp)
  70:	dbc01215 	stw	r15,72(sp)
#else
        /*
         * Test to see if the exception was a software exception or caused 
         * by an external interrupt, and vector accordingly.
         */
        rdctl r4, ipending
  74:	0009313a 	rdctl	r4,ipending
        andi  r2, r5, 1
  78:	2880004c 	andi	r2,r5,1
        beq   r2, zero, .Lnot_irq
  7c:	10000326 	beq	r2,zero,8c <alt_exception+0x6c>
        beq   r4, zero, .Lnot_irq
  80:	20000226 	beq	r4,zero,8c <alt_exception+0x6c>
        /*
         * Now that all necessary registers have been preserved, call 
         * alt_irq_handler() to process the interrupts.
         */

        call alt_irq_handler
  84:	00000fc0 	call	fc <alt_irq_handler>

        .section .exceptions.irqreturn, "xa"

        br    .Lexception_exit
  88:	00000706 	br	a8 <alt_exception+0x88>
         * upon completion, so we write ea (address of instruction *after*
         * the one where the exception occured) into 72(sp). The actual
         * instruction that caused the exception is written in r2, which these
         * handlers will utilize.
         */
        stw ea, 72(sp) /* EA is PC+4 so will skip over instruction causing exception */
  8c:	df401215 	stw	ea,72(sp)
.Lunknown_16bit:
        addi.n r4, r4, 2 /* Need PC+2 to skip over instruction causing exception */
        stw r4, 72(sp)

#else /* CDX is not Enabled and all instructions are 32bits */
        ldw r2, -4(ea) /* Instruction value that caused exception */
  90:	e8bfff17 	ldw	r2,-4(ea)
  94:	e93fff04 	addi	r4,ea,-4
  98:	00001c40 	call	1c4 <alt_instruction_exception_entry>
  9c:	1000021e 	bne	r2,zero,a8 <alt_exception+0x88>
  a0:	ebffff04 	addi	r15,ea,-4
  a4:	dbc01215 	stw	r15,72(sp)
        /* 
         * Restore the saved registers, so that all general purpose registers 
         * have been restored to their state at the time the interrupt occured.
         */

        ldw   r5,  68(sp)
  a8:	d9401117 	ldw	r5,68(sp)
        ldw   ea,  72(sp)  /* This becomes the PC once eret is executed */
  ac:	df401217 	ldw	ea,72(sp)
        ldw   ra,   0(sp)
  b0:	dfc00017 	ldw	ra,0(sp)

        wrctl estatus, r5
  b4:	2801707a 	wrctl	estatus,r5

        ldw   r1,   8(sp)
  b8:	d8400217 	ldw	at,8(sp)
        ldw   r2,  12(sp)
  bc:	d8800317 	ldw	r2,12(sp)
        ldw   r3,  16(sp)
  c0:	d8c00417 	ldw	r3,16(sp)
        ldw   r4,  20(sp)
  c4:	d9000517 	ldw	r4,20(sp)
        ldw   r5,  24(sp)
  c8:	d9400617 	ldw	r5,24(sp)
        ldw   r6,  28(sp)
  cc:	d9800717 	ldw	r6,28(sp)
        ldw   r7,  32(sp)
  d0:	d9c00817 	ldw	r7,32(sp)

#if defined(ALT_EXCEPTION_STACK) && defined(ALT_STACK_CHECK)
        ldw   et, %gprel(alt_exception_old_stack_limit)(gp)
#endif

        ldw   r8,  36(sp)
  d4:	da000917 	ldw	r8,36(sp)
        ldw   r9,  40(sp)
  d8:	da400a17 	ldw	r9,40(sp)
        ldw   r10, 44(sp)
  dc:	da800b17 	ldw	r10,44(sp)
        ldw   r11, 48(sp)
  e0:	dac00c17 	ldw	r11,48(sp)
        ldw   r12, 52(sp)
  e4:	db000d17 	ldw	r12,52(sp)
        ldw   r13, 56(sp)
  e8:	db400e17 	ldw	r13,56(sp)
        ldw   r14, 60(sp)
  ec:	db800f17 	ldw	r14,60(sp)
        ldw   r15, 64(sp)
  f0:	dbc01017 	ldw	r15,64(sp)
        stw   et, %gprel(alt_stack_limit_value)(gp)
        stw   zero, %gprel(alt_exception_old_stack_limit)(gp)
#endif /* ALT_STACK_CHECK */
        ldw   sp,  76(sp)
#else /* ALT_EXCEPTION_STACK disabled */
        addi  sp, sp, 76
  f4:	dec01304 	addi	sp,sp,76

        /*
         * Return to the interrupted instruction.
         */

        eret
  f8:	ef80083a 	eret

000000fc <alt_irq_handler>:
 * instruction is present if the macro ALT_CI_INTERRUPT_VECTOR defined.
 */

void alt_irq_handler (void) __attribute__ ((section (".exceptions")));
void alt_irq_handler (void)
{
  fc:	defff904 	addi	sp,sp,-28
 100:	dfc00615 	stw	ra,24(sp)
 104:	df000515 	stw	fp,20(sp)
 108:	df000504 	addi	fp,sp,20
  
  /*
   * Notify the operating system that we are at interrupt level.
   */ 
  
  ALT_OS_INT_ENTER();
 10c:	0001883a 	nop
#ifndef NIOS2_EIC_PRESENT
static ALT_INLINE alt_u32 ALT_ALWAYS_INLINE alt_irq_pending (void)
{
  alt_u32 active;

  NIOS2_READ_IPENDING (active);
 110:	0005313a 	rdctl	r2,ipending
 114:	e0bffc15 	stw	r2,-16(fp)

  return active;
 118:	e0bffc17 	ldw	r2,-16(fp)
   * Consider the case where the high priority interupt is asserted during
   * the interrupt entry sequence for a lower priority interrupt to see why
   * this is the case.
   */

  active = alt_irq_pending ();
 11c:	e0bfff15 	stw	r2,-4(fp)

  do
  {
    i = 0;
 120:	e03ffd15 	stw	zero,-12(fp)
    mask = 1;
 124:	00800044 	movi	r2,1
 128:	e0bffe15 	stw	r2,-8(fp)
     * called to clear the interrupt condition.
     */

    do
    {
      if (active & mask)
 12c:	e0ffff17 	ldw	r3,-4(fp)
 130:	e0bffe17 	ldw	r2,-8(fp)
 134:	1884703a 	and	r2,r3,r2
 138:	10001126 	beq	r2,zero,180 <alt_irq_handler+0x84>
      { 
#ifdef ALT_ENHANCED_INTERRUPT_API_PRESENT
        alt_irq[i].handler(alt_irq[i].context); 
 13c:	e0bffd17 	ldw	r2,-12(fp)
 140:	100690fa 	slli	r3,r2,3
 144:	00800074 	movhi	r2,1
 148:	1885883a 	add	r2,r3,r2
 14c:	10d10017 	ldw	r3,17408(r2)
 150:	e0bffd17 	ldw	r2,-12(fp)
 154:	100890fa 	slli	r4,r2,3
 158:	00800074 	movhi	r2,1
 15c:	2085883a 	add	r2,r4,r2
 160:	10910117 	ldw	r2,17412(r2)
 164:	1009883a 	mov	r4,r2
 168:	183ee83a 	callr	r3
#else
        alt_irq[i].handler(alt_irq[i].context, i); 
#endif
        break;
 16c:	0001883a 	nop
  NIOS2_READ_IPENDING (active);
 170:	0005313a 	rdctl	r2,ipending
 174:	e0bffb15 	stw	r2,-20(fp)
  return active;
 178:	e0bffb17 	ldw	r2,-20(fp)
 17c:	00000706 	br	19c <alt_irq_handler+0xa0>
      }
      mask <<= 1;
 180:	e0bffe17 	ldw	r2,-8(fp)
 184:	1085883a 	add	r2,r2,r2
 188:	e0bffe15 	stw	r2,-8(fp)
      i++;
 18c:	e0bffd17 	ldw	r2,-12(fp)
 190:	10800044 	addi	r2,r2,1
 194:	e0bffd15 	stw	r2,-12(fp)
      if (active & mask)
 198:	003fe406 	br	12c <alt_irq_handler+0x30>

    } while (1);

    active = alt_irq_pending ();
 19c:	e0bfff15 	stw	r2,-4(fp)
    
  } while (active);
 1a0:	e0bfff17 	ldw	r2,-4(fp)
 1a4:	103fde1e 	bne	r2,zero,120 <alt_irq_handler+0x24>

  /*
   * Notify the operating system that interrupt processing is complete.
   */ 

  ALT_OS_INT_EXIT();
 1a8:	0001883a 	nop
}
 1ac:	0001883a 	nop
 1b0:	e037883a 	mov	sp,fp
 1b4:	dfc00117 	ldw	ra,4(sp)
 1b8:	df000017 	ldw	fp,0(sp)
 1bc:	dec00204 	addi	sp,sp,8
 1c0:	f800283a 	ret

000001c4 <alt_instruction_exception_entry>:
 * that handler if it has been registered. Absent a handler, it will
 * break break or hang as discussed below.
 */
int 
alt_instruction_exception_entry (alt_u32 exception_pc)
{
 1c4:	defffb04 	addi	sp,sp,-20
 1c8:	dfc00415 	stw	ra,16(sp)
 1cc:	df000315 	stw	fp,12(sp)
 1d0:	df000304 	addi	fp,sp,12
 1d4:	e13ffd15 	stw	r4,-12(fp)
  cause = ( (cause & NIOS2_EXCEPTION_REG_CAUSE_MASK) >>
              NIOS2_EXCEPTION_REG_CAUSE_OFST );

  NIOS2_READ_BADADDR(badaddr);
#else
  cause = NIOS2_EXCEPTION_CAUSE_NOT_PRESENT;
 1d8:	00bfffc4 	movi	r2,-1
 1dc:	e0bfff15 	stw	r2,-4(fp)
  badaddr = 0;
 1e0:	e03ffe15 	stw	zero,-8(fp)
#endif /* NIOS2_HAS_EXTRA_EXCEPTION_INFO */

  if(alt_instruction_exception_handler) {
 1e4:	d0a71017 	ldw	r2,-25536(gp)
 1e8:	10000726 	beq	r2,zero,208 <alt_instruction_exception_entry+0x44>
     * Call handler. Its return value indicates whether the exception-causing
     * instruction should be re-issued. The code that called us,
     * alt_eceptions_entry.S, will look at this value and adjust the ea
     * register as necessary
     */
    return alt_instruction_exception_handler(cause, exception_pc, badaddr);
 1ec:	d0a71017 	ldw	r2,-25536(gp)
 1f0:	e0ffff17 	ldw	r3,-4(fp)
 1f4:	e1bffe17 	ldw	r6,-8(fp)
 1f8:	e17ffd17 	ldw	r5,-12(fp)
 1fc:	1809883a 	mov	r4,r3
 200:	103ee83a 	callr	r2
 204:	00000206 	br	210 <alt_instruction_exception_entry+0x4c>
   *    (a peripheral which negates its interrupt output before its
   *    interrupt handler has been executed will cause spurious interrupts)
   */
  else {
#ifdef NIOS2_HAS_DEBUG_STUB
    NIOS2_BREAK();
 208:	003da03a 	break	0
      ;
#endif /* NIOS2_HAS_DEBUG_STUB */
  }

  /* We should not get here. Remove compiler warning. */
  return NIOS2_EXCEPTION_RETURN_REISSUE_INST;
 20c:	0005883a 	mov	r2,zero
}
 210:	e037883a 	mov	sp,fp
 214:	dfc00117 	ldw	ra,4(sp)
 218:	df000017 	ldw	fp,0(sp)
 21c:	dec00204 	addi	sp,sp,8
 220:	f800283a 	ret

Disassembly of section .text:

00000224 <_start>:

    /*
     * Now that the caches are initialized, set up the stack pointer and global pointer.
     * The values provided by the linker are assumed to be correctly aligned.
     */
    movhi sp, %hi(__alt_stack_pointer)
     224:	06c000b4 	movhi	sp,2
    ori sp, sp, %lo(__alt_stack_pointer)
     228:	ded60014 	ori	sp,sp,22528
    movhi gp, %hi(_gp)
     22c:	06800074 	movhi	gp,1
    ori gp, gp, %lo(_gp)
     230:	d6a9e514 	ori	gp,gp,42900
 */
#ifndef ALT_SIM_OPTIMIZE
    /* Log that the BSS is about to be cleared. */
    ALT_LOG_PUTS(alt_log_msg_bss)

    movhi r2, %hi(__bss_start)
     234:	00800074 	movhi	r2,1
    ori r2, r2, %lo(__bss_start)
     238:	1090e914 	ori	r2,r2,17316

    movhi r3, %hi(__bss_end)
     23c:	00c00074 	movhi	r3,1
    ori r3, r3, %lo(__bss_end)
     240:	18d14014 	ori	r3,r3,17664

    beq r2, r3, 1f
     244:	10c00326 	beq	r2,r3,254 <_start+0x30>

0:
    stw zero, (r2)
     248:	10000015 	stw	zero,0(r2)
    addi r2, r2, 4
     24c:	10800104 	addi	r2,r2,4
    bltu r2, r3, 0b
     250:	10fffd36 	bltu	r2,r3,248 <_start+0x24>
     * section aren't defined until alt_load() has been called).
     */
    mov   et, zero
#endif

    call alt_load
     254:	000de580 	call	de58 <alt_load>

    /* Log that alt_main is about to be called. */
    ALT_LOG_PUTS(alt_log_msg_alt_main)

    /* Call the C entry point. It should never return. */
    call alt_main
     258:	000dff80 	call	dff8 <alt_main>

0000025c <alt_after_alt_main>:

    /* Wait in infinite loop in case alt_main does return. */
alt_after_alt_main:
    br alt_after_alt_main
     25c:	003fff06 	br	25c <alt_after_alt_main>

00000260 <main>:
#include <system.h>
#include <altera_avalon_fifo_regs.h>
#include <altera_avalon_fifo_util.h>

int main()
{
     260:	defffd04 	addi	sp,sp,-12
     264:	dfc00215 	stw	ra,8(sp)
     268:	df000115 	stw	fp,4(sp)
     26c:	df000104 	addi	fp,sp,4
	printf("Hello from Nios II!\n");
     270:	01000074 	movhi	r4,1
     274:	21015e04 	addi	r4,r4,1400
     278:	00004040 	call	404 <puts>
	{

		  int read_data;

		 do {
			 read_data= altera_avalon_fifo_read_fifo(NIOSE_INPUT_OUT_BASE,NIOSE_INPUT_IN_CSR_BASE );
     27c:	01400134 	movhi	r5,4
     280:	29440004 	addi	r5,r5,4096
     284:	01000134 	movhi	r4,4
     288:	21041204 	addi	r4,r4,4168
     28c:	000e9200 	call	e920 <altera_avalon_fifo_read_fifo>
     290:	e0bfff15 	stw	r2,-4(fp)
		 } while(read_data==0);
     294:	e0bfff17 	ldw	r2,-4(fp)
     298:	103ff826 	beq	r2,zero,27c <main+0x1c>

		 printf("read data: %d\n",read_data);
     29c:	e17fff17 	ldw	r5,-4(fp)
     2a0:	01000074 	movhi	r4,1
     2a4:	21016304 	addi	r4,r4,1420
     2a8:	00002fc0 	call	2fc <printf>
		 altera_avalon_fifo_write_fifo(NIOS_OUTPUT_IN_BASE ,NIOS_OUTPUT_IN_CSR_BASE,read_data);
     2ac:	e0bfff17 	ldw	r2,-4(fp)
     2b0:	100d883a 	mov	r6,r2
     2b4:	01400134 	movhi	r5,4
     2b8:	29440804 	addi	r5,r5,4128
     2bc:	01000134 	movhi	r4,4
     2c0:	21041404 	addi	r4,r4,4176
     2c4:	000e85c0 	call	e85c <altera_avalon_fifo_write_fifo>
	{
     2c8:	003fec06 	br	27c <main+0x1c>

000002cc <_printf_r>:
     2cc:	defffd04 	addi	sp,sp,-12
     2d0:	2805883a 	mov	r2,r5
     2d4:	dfc00015 	stw	ra,0(sp)
     2d8:	d9800115 	stw	r6,4(sp)
     2dc:	d9c00215 	stw	r7,8(sp)
     2e0:	21400217 	ldw	r5,8(r4)
     2e4:	d9c00104 	addi	r7,sp,4
     2e8:	100d883a 	mov	r6,r2
     2ec:	00004ac0 	call	4ac <___vfprintf_internal_r>
     2f0:	dfc00017 	ldw	ra,0(sp)
     2f4:	dec00304 	addi	sp,sp,12
     2f8:	f800283a 	ret

000002fc <printf>:
     2fc:	defffc04 	addi	sp,sp,-16
     300:	dfc00015 	stw	ra,0(sp)
     304:	d9400115 	stw	r5,4(sp)
     308:	d9800215 	stw	r6,8(sp)
     30c:	d9c00315 	stw	r7,12(sp)
     310:	00800074 	movhi	r2,1
     314:	1089e617 	ldw	r2,10136(r2)
     318:	200b883a 	mov	r5,r4
     31c:	d9800104 	addi	r6,sp,4
     320:	11000217 	ldw	r4,8(r2)
     324:	000295c0 	call	295c <__vfprintf_internal>
     328:	dfc00017 	ldw	ra,0(sp)
     32c:	dec00404 	addi	sp,sp,16
     330:	f800283a 	ret

00000334 <_puts_r>:
     334:	defff504 	addi	sp,sp,-44
     338:	dc000815 	stw	r16,32(sp)
     33c:	2021883a 	mov	r16,r4
     340:	2809883a 	mov	r4,r5
     344:	dc400915 	stw	r17,36(sp)
     348:	dfc00a15 	stw	ra,40(sp)
     34c:	2823883a 	mov	r17,r5
     350:	00004140 	call	414 <strlen>
     354:	11000044 	addi	r4,r2,1
     358:	d8800515 	stw	r2,20(sp)
     35c:	00800044 	movi	r2,1
     360:	00c00074 	movhi	r3,1
     364:	d8800715 	stw	r2,28(sp)
     368:	d8800404 	addi	r2,sp,16
     36c:	18c16704 	addi	r3,r3,1436
     370:	d8800115 	stw	r2,4(sp)
     374:	00800084 	movi	r2,2
     378:	dc400415 	stw	r17,16(sp)
     37c:	d8c00615 	stw	r3,24(sp)
     380:	d9000315 	stw	r4,12(sp)
     384:	d8800215 	stw	r2,8(sp)
     388:	81400217 	ldw	r5,8(r16)
     38c:	80000226 	beq	r16,zero,398 <_puts_r+0x64>
     390:	80800e17 	ldw	r2,56(r16)
     394:	10001426 	beq	r2,zero,3e8 <_puts_r+0xb4>
     398:	2880030b 	ldhu	r2,12(r5)
     39c:	10c8000c 	andi	r3,r2,8192
     3a0:	1800061e 	bne	r3,zero,3bc <_puts_r+0x88>
     3a4:	28c01917 	ldw	r3,100(r5)
     3a8:	0137ffc4 	movi	r4,-8193
     3ac:	10880014 	ori	r2,r2,8192
     3b0:	1906703a 	and	r3,r3,r4
     3b4:	2880030d 	sth	r2,12(r5)
     3b8:	28c01915 	stw	r3,100(r5)
     3bc:	d9800104 	addi	r6,sp,4
     3c0:	8009883a 	mov	r4,r16
     3c4:	000502c0 	call	502c <__sfvwrite_r>
     3c8:	1007883a 	mov	r3,r2
     3cc:	00800284 	movi	r2,10
     3d0:	18000a1e 	bne	r3,zero,3fc <_puts_r+0xc8>
     3d4:	dfc00a17 	ldw	ra,40(sp)
     3d8:	dc400917 	ldw	r17,36(sp)
     3dc:	dc000817 	ldw	r16,32(sp)
     3e0:	dec00b04 	addi	sp,sp,44
     3e4:	f800283a 	ret
     3e8:	8009883a 	mov	r4,r16
     3ec:	d9400015 	stw	r5,0(sp)
     3f0:	0004bb80 	call	4bb8 <__sinit>
     3f4:	d9400017 	ldw	r5,0(sp)
     3f8:	003fe706 	br	398 <_puts_r+0x64>
     3fc:	00bfffc4 	movi	r2,-1
     400:	003ff406 	br	3d4 <_puts_r+0xa0>

00000404 <puts>:
     404:	00800074 	movhi	r2,1
     408:	200b883a 	mov	r5,r4
     40c:	1109e617 	ldw	r4,10136(r2)
     410:	00003341 	jmpi	334 <_puts_r>

00000414 <strlen>:
     414:	208000cc 	andi	r2,r4,3
     418:	10000926 	beq	r2,zero,440 <strlen+0x2c>
     41c:	2005883a 	mov	r2,r4
     420:	00000306 	br	430 <strlen+0x1c>
     424:	10800044 	addi	r2,r2,1
     428:	10c000cc 	andi	r3,r2,3
     42c:	18000526 	beq	r3,zero,444 <strlen+0x30>
     430:	10c00007 	ldb	r3,0(r2)
     434:	183ffb1e 	bne	r3,zero,424 <strlen+0x10>
     438:	1105c83a 	sub	r2,r2,r4
     43c:	f800283a 	ret
     440:	2005883a 	mov	r2,r4
     444:	11400017 	ldw	r5,0(r2)
     448:	01ffbff4 	movhi	r7,65279
     44c:	39ffbfc4 	addi	r7,r7,-257
     450:	29c7883a 	add	r3,r5,r7
     454:	01a02074 	movhi	r6,32897
     458:	014a303a 	nor	r5,zero,r5
     45c:	1946703a 	and	r3,r3,r5
     460:	31a02004 	addi	r6,r6,-32640
     464:	1986703a 	and	r3,r3,r6
     468:	1800071e 	bne	r3,zero,488 <strlen+0x74>
     46c:	11400117 	ldw	r5,4(r2)
     470:	10800104 	addi	r2,r2,4
     474:	29c7883a 	add	r3,r5,r7
     478:	014a303a 	nor	r5,zero,r5
     47c:	1946703a 	and	r3,r3,r5
     480:	1986703a 	and	r3,r3,r6
     484:	183ff926 	beq	r3,zero,46c <strlen+0x58>
     488:	10c00007 	ldb	r3,0(r2)
     48c:	183fea26 	beq	r3,zero,438 <strlen+0x24>
     490:	10c00047 	ldb	r3,1(r2)
     494:	10800044 	addi	r2,r2,1
     498:	183fe726 	beq	r3,zero,438 <strlen+0x24>
     49c:	10c00047 	ldb	r3,1(r2)
     4a0:	10800044 	addi	r2,r2,1
     4a4:	183ffa1e 	bne	r3,zero,490 <strlen+0x7c>
     4a8:	003fe306 	br	438 <strlen+0x24>

000004ac <___vfprintf_internal_r>:
     4ac:	deffbc04 	addi	sp,sp,-272
     4b0:	dfc04315 	stw	ra,268(sp)
     4b4:	dc803c15 	stw	r18,240(sp)
     4b8:	dc003a15 	stw	r16,232(sp)
     4bc:	d9000515 	stw	r4,20(sp)
     4c0:	2021883a 	mov	r16,r4
     4c4:	d9400415 	stw	r5,16(sp)
     4c8:	3025883a 	mov	r18,r6
     4cc:	d9c00715 	stw	r7,28(sp)
     4d0:	df004215 	stw	fp,264(sp)
     4d4:	ddc04115 	stw	r23,260(sp)
     4d8:	dd804015 	stw	r22,256(sp)
     4dc:	dd403f15 	stw	r21,252(sp)
     4e0:	dd003e15 	stw	r20,248(sp)
     4e4:	dcc03d15 	stw	r19,244(sp)
     4e8:	dc403b15 	stw	r17,236(sp)
     4ec:	000561c0 	call	561c <_localeconv_r>
     4f0:	10800017 	ldw	r2,0(r2)
     4f4:	1009883a 	mov	r4,r2
     4f8:	d8800d15 	stw	r2,52(sp)
     4fc:	00004140 	call	414 <strlen>
     500:	d8800c15 	stw	r2,48(sp)
     504:	80000226 	beq	r16,zero,510 <___vfprintf_internal_r+0x64>
     508:	80800e17 	ldw	r2,56(r16)
     50c:	10023726 	beq	r2,zero,dec <___vfprintf_internal_r+0x940>
     510:	d9400417 	ldw	r5,16(sp)
     514:	2880030b 	ldhu	r2,12(r5)
     518:	10c8000c 	andi	r3,r2,8192
     51c:	1800071e 	bne	r3,zero,53c <___vfprintf_internal_r+0x90>
     520:	28c01917 	ldw	r3,100(r5)
     524:	11080014 	ori	r4,r2,8192
     528:	00b7ffc4 	movi	r2,-8193
     52c:	1886703a 	and	r3,r3,r2
     530:	2900030d 	sth	r4,12(r5)
     534:	2005883a 	mov	r2,r4
     538:	28c01915 	stw	r3,100(r5)
     53c:	10c0020c 	andi	r3,r2,8
     540:	1800f726 	beq	r3,zero,920 <___vfprintf_internal_r+0x474>
     544:	d8c00417 	ldw	r3,16(sp)
     548:	18c00417 	ldw	r3,16(r3)
     54c:	1800f426 	beq	r3,zero,920 <___vfprintf_internal_r+0x474>
     550:	1080068c 	andi	r2,r2,26
     554:	10800298 	cmpnei	r2,r2,10
     558:	1000fa26 	beq	r2,zero,944 <___vfprintf_internal_r+0x498>
     55c:	dc402a04 	addi	r17,sp,168
     560:	04c00074 	movhi	r19,1
     564:	dc401d15 	stw	r17,116(sp)
     568:	d8001f15 	stw	zero,124(sp)
     56c:	d8001e15 	stw	zero,120(sp)
     570:	d8000915 	stw	zero,36(sp)
     574:	d8000a15 	stw	zero,40(sp)
     578:	d8000b15 	stw	zero,44(sp)
     57c:	d8000e15 	stw	zero,56(sp)
     580:	d8001215 	stw	zero,72(sp)
     584:	d8000615 	stw	zero,24(sp)
     588:	9cc17904 	addi	r19,r19,1508
     58c:	8821883a 	mov	r16,r17
     590:	9029883a 	mov	r20,r18
     594:	a0800007 	ldb	r2,0(r20)
     598:	1000ce26 	beq	r2,zero,8d4 <___vfprintf_internal_r+0x428>
     59c:	a025883a 	mov	r18,r20
     5a0:	00000306 	br	5b0 <___vfprintf_internal_r+0x104>
     5a4:	90800047 	ldb	r2,1(r18)
     5a8:	94800044 	addi	r18,r18,1
     5ac:	10015226 	beq	r2,zero,af8 <___vfprintf_internal_r+0x64c>
     5b0:	10800958 	cmpnei	r2,r2,37
     5b4:	103ffb1e 	bne	r2,zero,5a4 <___vfprintf_internal_r+0xf8>
     5b8:	952fc83a 	sub	r23,r18,r20
     5bc:	9501501e 	bne	r18,r20,b00 <___vfprintf_internal_r+0x654>
     5c0:	90800003 	ldbu	r2,0(r18)
     5c4:	10803fcc 	andi	r2,r2,255
     5c8:	1080201c 	xori	r2,r2,128
     5cc:	10bfe004 	addi	r2,r2,-128
     5d0:	1000c026 	beq	r2,zero,8d4 <___vfprintf_internal_r+0x428>
     5d4:	92c00047 	ldb	r11,1(r18)
     5d8:	95000044 	addi	r20,r18,1
     5dc:	d8001645 	stb	zero,89(sp)
     5e0:	04bfffc4 	movi	r18,-1
     5e4:	0015883a 	mov	r10,zero
     5e8:	0019883a 	mov	r12,zero
     5ec:	a5000044 	addi	r20,r20,1
     5f0:	58bff804 	addi	r2,r11,-32
     5f4:	10c01668 	cmpgeui	r3,r2,89
     5f8:	18006c1e 	bne	r3,zero,7ac <___vfprintf_internal_r+0x300>
     5fc:	100490ba 	slli	r2,r2,2
     600:	00c00034 	movhi	r3,0
     604:	10c7883a 	add	r3,r2,r3
     608:	18818417 	ldw	r2,1552(r3)
     60c:	1000683a 	jmp	r2
     610:	00000ec4 	movi	zero,59
     614:	000007ac 	andhi	zero,zero,30
     618:	000007ac 	andhi	zero,zero,30
     61c:	00000eb8 	rdprs	zero,zero,58
     620:	000007ac 	andhi	zero,zero,30
     624:	000007ac 	andhi	zero,zero,30
     628:	000007ac 	andhi	zero,zero,30
     62c:	000007ac 	andhi	zero,zero,30
     630:	000007ac 	andhi	zero,zero,30
     634:	000007ac 	andhi	zero,zero,30
     638:	00000e2c 	andhi	zero,zero,56
     63c:	00000ea8 	cmpgeui	zero,zero,58
     640:	000007ac 	andhi	zero,zero,30
     644:	00000e44 	movi	zero,57
     648:	00000e50 	cmplti	zero,zero,57
     64c:	000007ac 	andhi	zero,zero,30
     650:	00000e9c 	xori	zero,zero,58
     654:	00000774 	movhi	zero,29
     658:	00000774 	movhi	zero,29
     65c:	00000774 	movhi	zero,29
     660:	00000774 	movhi	zero,29
     664:	00000774 	movhi	zero,29
     668:	00000774 	movhi	zero,29
     66c:	00000774 	movhi	zero,29
     670:	00000774 	movhi	zero,29
     674:	00000774 	movhi	zero,29
     678:	000007ac 	andhi	zero,zero,30
     67c:	000007ac 	andhi	zero,zero,30
     680:	000007ac 	andhi	zero,zero,30
     684:	000007ac 	andhi	zero,zero,30
     688:	000007ac 	andhi	zero,zero,30
     68c:	000007ac 	andhi	zero,zero,30
     690:	000007ac 	andhi	zero,zero,30
     694:	000007ac 	andhi	zero,zero,30
     698:	000007ac 	andhi	zero,zero,30
     69c:	000007ac 	andhi	zero,zero,30
     6a0:	00000990 	cmplti	zero,zero,38
     6a4:	00000c4c 	andi	zero,zero,49
     6a8:	000007ac 	andhi	zero,zero,30
     6ac:	00000c4c 	andi	zero,zero,49
     6b0:	000007ac 	andhi	zero,zero,30
     6b4:	000007ac 	andhi	zero,zero,30
     6b8:	000007ac 	andhi	zero,zero,30
     6bc:	000007ac 	andhi	zero,zero,30
     6c0:	00000f10 	cmplti	zero,zero,60
     6c4:	000007ac 	andhi	zero,zero,30
     6c8:	000007ac 	andhi	zero,zero,30
     6cc:	000009f8 	rdprs	zero,zero,39
     6d0:	000007ac 	andhi	zero,zero,30
     6d4:	000007ac 	andhi	zero,zero,30
     6d8:	000007ac 	andhi	zero,zero,30
     6dc:	000007ac 	andhi	zero,zero,30
     6e0:	000007ac 	andhi	zero,zero,30
     6e4:	00000a20 	cmpeqi	zero,zero,40
     6e8:	000007ac 	andhi	zero,zero,30
     6ec:	000007ac 	andhi	zero,zero,30
     6f0:	00001ab0 	cmpltui	zero,zero,106
     6f4:	000007ac 	andhi	zero,zero,30
     6f8:	000007ac 	andhi	zero,zero,30
     6fc:	000007ac 	andhi	zero,zero,30
     700:	000007ac 	andhi	zero,zero,30
     704:	000007ac 	andhi	zero,zero,30
     708:	000007ac 	andhi	zero,zero,30
     70c:	000007ac 	andhi	zero,zero,30
     710:	000007ac 	andhi	zero,zero,30
     714:	000007ac 	andhi	zero,zero,30
     718:	000007ac 	andhi	zero,zero,30
     71c:	00000f28 	cmpgeui	zero,zero,60
     720:	00000994 	movui	zero,38
     724:	00000c4c 	andi	zero,zero,49
     728:	00000c4c 	andi	zero,zero,49
     72c:	00000c4c 	andi	zero,zero,49
     730:	00000f1c 	xori	zero,zero,60
     734:	00000994 	movui	zero,38
     738:	000007ac 	andhi	zero,zero,30
     73c:	000007ac 	andhi	zero,zero,30
     740:	00000ee8 	cmpgeui	zero,zero,59
     744:	000007ac 	andhi	zero,zero,30
     748:	00000fec 	andhi	zero,zero,63
     74c:	000009fc 	xorhi	zero,zero,39
     750:	00000fb4 	movhi	zero,62
     754:	00000fa8 	cmpgeui	zero,zero,62
     758:	000007ac 	andhi	zero,zero,30
     75c:	00000f50 	cmplti	zero,zero,61
     760:	000007ac 	andhi	zero,zero,30
     764:	00000a24 	muli	zero,zero,40
     768:	000007ac 	andhi	zero,zero,30
     76c:	000007ac 	andhi	zero,zero,30
     770:	00001b20 	cmpeqi	zero,zero,108
     774:	0015883a 	mov	r10,zero
     778:	58fff404 	addi	r3,r11,-48
     77c:	500490ba 	slli	r2,r10,2
     780:	a2c00007 	ldb	r11,0(r20)
     784:	a5000044 	addi	r20,r20,1
     788:	1295883a 	add	r10,r2,r10
     78c:	5295883a 	add	r10,r10,r10
     790:	1a95883a 	add	r10,r3,r10
     794:	58fff404 	addi	r3,r11,-48
     798:	188002b0 	cmpltui	r2,r3,10
     79c:	103ff71e 	bne	r2,zero,77c <___vfprintf_internal_r+0x2d0>
     7a0:	58bff804 	addi	r2,r11,-32
     7a4:	10c01668 	cmpgeui	r3,r2,89
     7a8:	183f9426 	beq	r3,zero,5fc <___vfprintf_internal_r+0x150>
     7ac:	58004926 	beq	r11,zero,8d4 <___vfprintf_internal_r+0x428>
     7b0:	dac02005 	stb	r11,128(sp)
     7b4:	d8001645 	stb	zero,89(sp)
     7b8:	03400044 	movi	r13,1
     7bc:	07000044 	movi	fp,1
     7c0:	dd402004 	addi	r21,sp,128
     7c4:	6007883a 	mov	r3,r12
     7c8:	0025883a 	mov	r18,zero
     7cc:	d8000815 	stw	zero,32(sp)
     7d0:	1b80008c 	andi	r14,r3,2
     7d4:	70000126 	beq	r14,zero,7dc <___vfprintf_internal_r+0x330>
     7d8:	6b400084 	addi	r13,r13,2
     7dc:	1b00210c 	andi	r12,r3,132
     7e0:	6000021e 	bne	r12,zero,7ec <___vfprintf_internal_r+0x340>
     7e4:	536dc83a 	sub	r22,r10,r13
     7e8:	05833416 	blt	zero,r22,14bc <___vfprintf_internal_r+0x1010>
     7ec:	d8801647 	ldb	r2,89(sp)
     7f0:	dd801f17 	ldw	r22,124(sp)
     7f4:	10000c26 	beq	r2,zero,828 <___vfprintf_internal_r+0x37c>
     7f8:	d8801e17 	ldw	r2,120(sp)
     7fc:	d9001644 	addi	r4,sp,89
     800:	b5800044 	addi	r22,r22,1
     804:	10800044 	addi	r2,r2,1
     808:	81000015 	stw	r4,0(r16)
     80c:	01000044 	movi	r4,1
     810:	d8801e15 	stw	r2,120(sp)
     814:	81000115 	stw	r4,4(r16)
     818:	dd801f15 	stw	r22,124(sp)
     81c:	10800208 	cmpgei	r2,r2,8
     820:	1003881e 	bne	r2,zero,1644 <___vfprintf_internal_r+0x1198>
     824:	84000204 	addi	r16,r16,8
     828:	70000c26 	beq	r14,zero,85c <___vfprintf_internal_r+0x3b0>
     82c:	d8801e17 	ldw	r2,120(sp)
     830:	d9001684 	addi	r4,sp,90
     834:	b5800084 	addi	r22,r22,2
     838:	10800044 	addi	r2,r2,1
     83c:	81000015 	stw	r4,0(r16)
     840:	01000084 	movi	r4,2
     844:	d8801e15 	stw	r2,120(sp)
     848:	81000115 	stw	r4,4(r16)
     84c:	dd801f15 	stw	r22,124(sp)
     850:	10800208 	cmpgei	r2,r2,8
     854:	10038f1e 	bne	r2,zero,1694 <___vfprintf_internal_r+0x11e8>
     858:	84000204 	addi	r16,r16,8
     85c:	63002018 	cmpnei	r12,r12,128
     860:	60024326 	beq	r12,zero,1170 <___vfprintf_internal_r+0xcc4>
     864:	9725c83a 	sub	r18,r18,fp
     868:	04828316 	blt	zero,r18,1278 <___vfprintf_internal_r+0xdcc>
     86c:	1880400c 	andi	r2,r3,256
     870:	1001ea1e 	bne	r2,zero,101c <___vfprintf_internal_r+0xb70>
     874:	d8801e17 	ldw	r2,120(sp)
     878:	e589883a 	add	r4,fp,r22
     87c:	85400015 	stw	r21,0(r16)
     880:	10800044 	addi	r2,r2,1
     884:	d8801e15 	stw	r2,120(sp)
     888:	87000115 	stw	fp,4(r16)
     88c:	d9001f15 	stw	r4,124(sp)
     890:	10800208 	cmpgei	r2,r2,8
     894:	10035d1e 	bne	r2,zero,160c <___vfprintf_internal_r+0x1160>
     898:	84000204 	addi	r16,r16,8
     89c:	18c0010c 	andi	r3,r3,4
     8a0:	18000226 	beq	r3,zero,8ac <___vfprintf_internal_r+0x400>
     8a4:	5365c83a 	sub	r18,r10,r13
     8a8:	0480ac16 	blt	zero,r18,b5c <___vfprintf_internal_r+0x6b0>
     8ac:	5340010e 	bge	r10,r13,8b4 <___vfprintf_internal_r+0x408>
     8b0:	6815883a 	mov	r10,r13
     8b4:	d8800617 	ldw	r2,24(sp)
     8b8:	1285883a 	add	r2,r2,r10
     8bc:	d8800615 	stw	r2,24(sp)
     8c0:	2002bb1e 	bne	r4,zero,13b0 <___vfprintf_internal_r+0xf04>
     8c4:	a0800007 	ldb	r2,0(r20)
     8c8:	d8001e15 	stw	zero,120(sp)
     8cc:	8821883a 	mov	r16,r17
     8d0:	103f321e 	bne	r2,zero,59c <___vfprintf_internal_r+0xf0>
     8d4:	d8801f17 	ldw	r2,124(sp)
     8d8:	10065e1e 	bne	r2,zero,2254 <___vfprintf_internal_r+0x1da8>
     8dc:	d8800417 	ldw	r2,16(sp)
     8e0:	1080030b 	ldhu	r2,12(r2)
     8e4:	1080100c 	andi	r2,r2,64
     8e8:	1007931e 	bne	r2,zero,2738 <___vfprintf_internal_r+0x228c>
     8ec:	d8800617 	ldw	r2,24(sp)
     8f0:	dfc04317 	ldw	ra,268(sp)
     8f4:	df004217 	ldw	fp,264(sp)
     8f8:	ddc04117 	ldw	r23,260(sp)
     8fc:	dd804017 	ldw	r22,256(sp)
     900:	dd403f17 	ldw	r21,252(sp)
     904:	dd003e17 	ldw	r20,248(sp)
     908:	dcc03d17 	ldw	r19,244(sp)
     90c:	dc803c17 	ldw	r18,240(sp)
     910:	dc403b17 	ldw	r17,236(sp)
     914:	dc003a17 	ldw	r16,232(sp)
     918:	dec04404 	addi	sp,sp,272
     91c:	f800283a 	ret
     920:	d9400417 	ldw	r5,16(sp)
     924:	d9000517 	ldw	r4,20(sp)
     928:	0002a3c0 	call	2a3c <__swsetup_r>
     92c:	1007821e 	bne	r2,zero,2738 <___vfprintf_internal_r+0x228c>
     930:	d8800417 	ldw	r2,16(sp)
     934:	1080030b 	ldhu	r2,12(r2)
     938:	1080068c 	andi	r2,r2,26
     93c:	10800298 	cmpnei	r2,r2,10
     940:	103f061e 	bne	r2,zero,55c <___vfprintf_internal_r+0xb0>
     944:	d8800417 	ldw	r2,16(sp)
     948:	1080038f 	ldh	r2,14(r2)
     94c:	103f0316 	blt	r2,zero,55c <___vfprintf_internal_r+0xb0>
     950:	d9c00717 	ldw	r7,28(sp)
     954:	d9400417 	ldw	r5,16(sp)
     958:	d9000517 	ldw	r4,20(sp)
     95c:	900d883a 	mov	r6,r18
     960:	dfc04317 	ldw	ra,268(sp)
     964:	df004217 	ldw	fp,264(sp)
     968:	ddc04117 	ldw	r23,260(sp)
     96c:	dd804017 	ldw	r22,256(sp)
     970:	dd403f17 	ldw	r21,252(sp)
     974:	dd003e17 	ldw	r20,248(sp)
     978:	dcc03d17 	ldw	r19,244(sp)
     97c:	dc803c17 	ldw	r18,240(sp)
     980:	dc403b17 	ldw	r17,236(sp)
     984:	dc003a17 	ldw	r16,232(sp)
     988:	dec04404 	addi	sp,sp,272
     98c:	00029781 	jmpi	2978 <__sbprintf>
     990:	63000414 	ori	r12,r12,16
     994:	6080080c 	andi	r2,r12,32
     998:	1000e726 	beq	r2,zero,d38 <___vfprintf_internal_r+0x88c>
     99c:	d8c00717 	ldw	r3,28(sp)
     9a0:	18800117 	ldw	r2,4(r3)
     9a4:	1d800017 	ldw	r22,0(r3)
     9a8:	18c00204 	addi	r3,r3,8
     9ac:	d8c00715 	stw	r3,28(sp)
     9b0:	1039883a 	mov	fp,r2
     9b4:	1000ee16 	blt	r2,zero,d70 <___vfprintf_internal_r+0x8c4>
     9b8:	90bfffd8 	cmpnei	r2,r18,-1
     9bc:	ddc01643 	ldbu	r23,89(sp)
     9c0:	10011126 	beq	r2,zero,e08 <___vfprintf_internal_r+0x95c>
     9c4:	00ffdfc4 	movi	r3,-129
     9c8:	b704b03a 	or	r2,r22,fp
     9cc:	60c6703a 	and	r3,r12,r3
     9d0:	10010c1e 	bne	r2,zero,e04 <___vfprintf_internal_r+0x958>
     9d4:	00800044 	movi	r2,1
     9d8:	90025e1e 	bne	r18,zero,1354 <___vfprintf_internal_r+0xea8>
     9dc:	1003ba1e 	bne	r2,zero,18c8 <___vfprintf_internal_r+0x141c>
     9e0:	6700004c 	andi	fp,r12,1
     9e4:	e0040626 	beq	fp,zero,1a00 <___vfprintf_internal_r+0x1554>
     9e8:	00800c04 	movi	r2,48
     9ec:	d88029c5 	stb	r2,167(sp)
     9f0:	dd4029c4 	addi	r21,sp,167
     9f4:	00003606 	br	ad0 <___vfprintf_internal_r+0x624>
     9f8:	63000414 	ori	r12,r12,16
     9fc:	6080080c 	andi	r2,r12,32
     a00:	1000ee26 	beq	r2,zero,dbc <___vfprintf_internal_r+0x910>
     a04:	d8c00717 	ldw	r3,28(sp)
     a08:	0005883a 	mov	r2,zero
     a0c:	1d800017 	ldw	r22,0(r3)
     a10:	1f000117 	ldw	fp,4(r3)
     a14:	18c00204 	addi	r3,r3,8
     a18:	d8c00715 	stw	r3,28(sp)
     a1c:	00000906 	br	a44 <___vfprintf_internal_r+0x598>
     a20:	63000414 	ori	r12,r12,16
     a24:	6080080c 	andi	r2,r12,32
     a28:	1000d826 	beq	r2,zero,d8c <___vfprintf_internal_r+0x8e0>
     a2c:	d8c00717 	ldw	r3,28(sp)
     a30:	00800044 	movi	r2,1
     a34:	1d800017 	ldw	r22,0(r3)
     a38:	1f000117 	ldw	fp,4(r3)
     a3c:	18c00204 	addi	r3,r3,8
     a40:	d8c00715 	stw	r3,28(sp)
     a44:	002f883a 	mov	r23,zero
     a48:	ddc01645 	stb	r23,89(sp)
     a4c:	90ffffe0 	cmpeqi	r3,r18,-1
     a50:	1800051e 	bne	r3,zero,a68 <___vfprintf_internal_r+0x5bc>
     a54:	00ffdfc4 	movi	r3,-129
     a58:	b708b03a 	or	r4,r22,fp
     a5c:	60c6703a 	and	r3,r12,r3
     a60:	203fdd26 	beq	r4,zero,9d8 <___vfprintf_internal_r+0x52c>
     a64:	1819883a 	mov	r12,r3
     a68:	10c00060 	cmpeqi	r3,r2,1
     a6c:	1800e61e 	bne	r3,zero,e08 <___vfprintf_internal_r+0x95c>
     a70:	108000a0 	cmpeqi	r2,r2,2
     a74:	10023e1e 	bne	r2,zero,1370 <___vfprintf_internal_r+0xec4>
     a78:	882b883a 	mov	r21,r17
     a7c:	b006d0fa 	srli	r3,r22,3
     a80:	e00a977a 	slli	r5,fp,29
     a84:	e038d0fa 	srli	fp,fp,3
     a88:	b58001cc 	andi	r22,r22,7
     a8c:	b0800c04 	addi	r2,r22,48
     a90:	28ecb03a 	or	r22,r5,r3
     a94:	a8bfffc5 	stb	r2,-1(r21)
     a98:	b706b03a 	or	r3,r22,fp
     a9c:	a809883a 	mov	r4,r21
     aa0:	ad7fffc4 	addi	r21,r21,-1
     aa4:	183ff51e 	bne	r3,zero,a7c <___vfprintf_internal_r+0x5d0>
     aa8:	60c0004c 	andi	r3,r12,1
     aac:	18023d26 	beq	r3,zero,13a4 <___vfprintf_internal_r+0xef8>
     ab0:	10800c18 	cmpnei	r2,r2,48
     ab4:	10023b26 	beq	r2,zero,13a4 <___vfprintf_internal_r+0xef8>
     ab8:	213fff84 	addi	r4,r4,-2
     abc:	00800c04 	movi	r2,48
     ac0:	a8bfffc5 	stb	r2,-1(r21)
     ac4:	8939c83a 	sub	fp,r17,r4
     ac8:	6007883a 	mov	r3,r12
     acc:	202b883a 	mov	r21,r4
     ad0:	901b883a 	mov	r13,r18
     ad4:	9700010e 	bge	r18,fp,adc <___vfprintf_internal_r+0x630>
     ad8:	e01b883a 	mov	r13,fp
     adc:	d8000815 	stw	zero,32(sp)
     ae0:	bdc03fcc 	andi	r23,r23,255
     ae4:	bdc0201c 	xori	r23,r23,128
     ae8:	bdffe004 	addi	r23,r23,-128
     aec:	b83f3826 	beq	r23,zero,7d0 <___vfprintf_internal_r+0x324>
     af0:	6b400044 	addi	r13,r13,1
     af4:	003f3606 	br	7d0 <___vfprintf_internal_r+0x324>
     af8:	952fc83a 	sub	r23,r18,r20
     afc:	953f7526 	beq	r18,r20,8d4 <___vfprintf_internal_r+0x428>
     b00:	dd801f17 	ldw	r22,124(sp)
     b04:	d8801e17 	ldw	r2,120(sp)
     b08:	85000015 	stw	r20,0(r16)
     b0c:	b5ed883a 	add	r22,r22,r23
     b10:	10800044 	addi	r2,r2,1
     b14:	d8801e15 	stw	r2,120(sp)
     b18:	85c00115 	stw	r23,4(r16)
     b1c:	dd801f15 	stw	r22,124(sp)
     b20:	10800208 	cmpgei	r2,r2,8
     b24:	1000061e 	bne	r2,zero,b40 <___vfprintf_internal_r+0x694>
     b28:	84000204 	addi	r16,r16,8
     b2c:	d8c00617 	ldw	r3,24(sp)
     b30:	90800003 	ldbu	r2,0(r18)
     b34:	1dc7883a 	add	r3,r3,r23
     b38:	d8c00615 	stw	r3,24(sp)
     b3c:	003ea106 	br	5c4 <___vfprintf_internal_r+0x118>
     b40:	d9400417 	ldw	r5,16(sp)
     b44:	d9000517 	ldw	r4,20(sp)
     b48:	d9801d04 	addi	r6,sp,116
     b4c:	0007edc0 	call	7edc <__sprint_r>
     b50:	103f621e 	bne	r2,zero,8dc <___vfprintf_internal_r+0x430>
     b54:	8821883a 	mov	r16,r17
     b58:	003ff406 	br	b2c <___vfprintf_internal_r+0x680>
     b5c:	05c00074 	movhi	r23,1
     b60:	90c00450 	cmplti	r3,r18,17
     b64:	d8801e17 	ldw	r2,120(sp)
     b68:	bdc17d04 	addi	r23,r23,1524
     b6c:	1800241e 	bne	r3,zero,c00 <___vfprintf_internal_r+0x754>
     b70:	8007883a 	mov	r3,r16
     b74:	b839883a 	mov	fp,r23
     b78:	dd400517 	ldw	r21,20(sp)
     b7c:	902f883a 	mov	r23,r18
     b80:	05800404 	movi	r22,16
     b84:	5021883a 	mov	r16,r10
     b88:	6825883a 	mov	r18,r13
     b8c:	00000406 	br	ba0 <___vfprintf_internal_r+0x6f4>
     b90:	bdfffc04 	addi	r23,r23,-16
     b94:	b9400448 	cmpgei	r5,r23,17
     b98:	18c00204 	addi	r3,r3,8
     b9c:	28001326 	beq	r5,zero,bec <___vfprintf_internal_r+0x740>
     ba0:	10800044 	addi	r2,r2,1
     ba4:	21000404 	addi	r4,r4,16
     ba8:	1f000015 	stw	fp,0(r3)
     bac:	1d800115 	stw	r22,4(r3)
     bb0:	d9001f15 	stw	r4,124(sp)
     bb4:	d8801e15 	stw	r2,120(sp)
     bb8:	11400208 	cmpgei	r5,r2,8
     bbc:	283ff426 	beq	r5,zero,b90 <___vfprintf_internal_r+0x6e4>
     bc0:	d9400417 	ldw	r5,16(sp)
     bc4:	d9801d04 	addi	r6,sp,116
     bc8:	a809883a 	mov	r4,r21
     bcc:	0007edc0 	call	7edc <__sprint_r>
     bd0:	103f421e 	bne	r2,zero,8dc <___vfprintf_internal_r+0x430>
     bd4:	bdfffc04 	addi	r23,r23,-16
     bd8:	b9400448 	cmpgei	r5,r23,17
     bdc:	d9001f17 	ldw	r4,124(sp)
     be0:	d8801e17 	ldw	r2,120(sp)
     be4:	8807883a 	mov	r3,r17
     be8:	283fed1e 	bne	r5,zero,ba0 <___vfprintf_internal_r+0x6f4>
     bec:	8015883a 	mov	r10,r16
     bf0:	901b883a 	mov	r13,r18
     bf4:	1821883a 	mov	r16,r3
     bf8:	b825883a 	mov	r18,r23
     bfc:	e02f883a 	mov	r23,fp
     c00:	10800044 	addi	r2,r2,1
     c04:	2489883a 	add	r4,r4,r18
     c08:	d8801e15 	stw	r2,120(sp)
     c0c:	85c00015 	stw	r23,0(r16)
     c10:	84800115 	stw	r18,4(r16)
     c14:	d9001f15 	stw	r4,124(sp)
     c18:	10800210 	cmplti	r2,r2,8
     c1c:	103f231e 	bne	r2,zero,8ac <___vfprintf_internal_r+0x400>
     c20:	d9400417 	ldw	r5,16(sp)
     c24:	d9000517 	ldw	r4,20(sp)
     c28:	d9801d04 	addi	r6,sp,116
     c2c:	db400f15 	stw	r13,60(sp)
     c30:	da800815 	stw	r10,32(sp)
     c34:	0007edc0 	call	7edc <__sprint_r>
     c38:	103f281e 	bne	r2,zero,8dc <___vfprintf_internal_r+0x430>
     c3c:	d9001f17 	ldw	r4,124(sp)
     c40:	db400f17 	ldw	r13,60(sp)
     c44:	da800817 	ldw	r10,32(sp)
     c48:	003f1806 	br	8ac <___vfprintf_internal_r+0x400>
     c4c:	d8c00717 	ldw	r3,28(sp)
     c50:	6080020c 	andi	r2,r12,8
     c54:	1d800204 	addi	r22,r3,8
     c58:	10036b1e 	bne	r2,zero,1a08 <___vfprintf_internal_r+0x155c>
     c5c:	d8800717 	ldw	r2,28(sp)
     c60:	10c00017 	ldw	r3,0(r2)
     c64:	10800117 	ldw	r2,4(r2)
     c68:	d8c00a15 	stw	r3,40(sp)
     c6c:	d8800b15 	stw	r2,44(sp)
     c70:	df000b17 	ldw	fp,44(sp)
     c74:	ddc00a17 	ldw	r23,40(sp)
     c78:	00a00034 	movhi	r2,32768
     c7c:	10bfffc4 	addi	r2,r2,-1
     c80:	e0aa703a 	and	r21,fp,r2
     c84:	01dffc34 	movhi	r7,32752
     c88:	01bfffc4 	movi	r6,-1
     c8c:	39ffffc4 	addi	r7,r7,-1
     c90:	b809883a 	mov	r4,r23
     c94:	a80b883a 	mov	r5,r21
     c98:	da800f15 	stw	r10,60(sp)
     c9c:	db000815 	stw	r12,32(sp)
     ca0:	dac00715 	stw	r11,28(sp)
     ca4:	000d6d40 	call	d6d4 <__unorddf2>
     ca8:	dac00717 	ldw	r11,28(sp)
     cac:	db000817 	ldw	r12,32(sp)
     cb0:	da800f17 	ldw	r10,60(sp)
     cb4:	10045c1e 	bne	r2,zero,1e28 <___vfprintf_internal_r+0x197c>
     cb8:	01dffc34 	movhi	r7,32752
     cbc:	01bfffc4 	movi	r6,-1
     cc0:	39ffffc4 	addi	r7,r7,-1
     cc4:	b809883a 	mov	r4,r23
     cc8:	a80b883a 	mov	r5,r21
     ccc:	000c4380 	call	c438 <__ledf2>
     cd0:	dac00717 	ldw	r11,28(sp)
     cd4:	db000817 	ldw	r12,32(sp)
     cd8:	da800f17 	ldw	r10,60(sp)
     cdc:	0084520e 	bge	zero,r2,1e28 <___vfprintf_internal_r+0x197c>
     ce0:	000d883a 	mov	r6,zero
     ce4:	000f883a 	mov	r7,zero
     ce8:	b809883a 	mov	r4,r23
     cec:	e00b883a 	mov	r5,fp
     cf0:	000c4380 	call	c438 <__ledf2>
     cf4:	dac00717 	ldw	r11,28(sp)
     cf8:	db000817 	ldw	r12,32(sp)
     cfc:	da800f17 	ldw	r10,60(sp)
     d00:	10053b16 	blt	r2,zero,21f0 <___vfprintf_internal_r+0x1d44>
     d04:	ddc01643 	ldbu	r23,89(sp)
     d08:	58801210 	cmplti	r2,r11,72
     d0c:	1005201e 	bne	r2,zero,2190 <___vfprintf_internal_r+0x1ce4>
     d10:	05400074 	movhi	r21,1
     d14:	ad416904 	addi	r21,r21,1444
     d18:	00ffdfc4 	movi	r3,-129
     d1c:	60c6703a 	and	r3,r12,r3
     d20:	dd800715 	stw	r22,28(sp)
     d24:	034000c4 	movi	r13,3
     d28:	070000c4 	movi	fp,3
     d2c:	0025883a 	mov	r18,zero
     d30:	d8000815 	stw	zero,32(sp)
     d34:	003f6a06 	br	ae0 <___vfprintf_internal_r+0x634>
     d38:	d8c00717 	ldw	r3,28(sp)
     d3c:	6080040c 	andi	r2,r12,16
     d40:	1d800017 	ldw	r22,0(r3)
     d44:	18c00104 	addi	r3,r3,4
     d48:	d8c00715 	stw	r3,28(sp)
     d4c:	10002a1e 	bne	r2,zero,df8 <___vfprintf_internal_r+0x94c>
     d50:	6080100c 	andi	r2,r12,64
     d54:	10002826 	beq	r2,zero,df8 <___vfprintf_internal_r+0x94c>
     d58:	b5bfffcc 	andi	r22,r22,65535
     d5c:	b5a0001c 	xori	r22,r22,32768
     d60:	b5a00004 	addi	r22,r22,-32768
     d64:	b039d7fa 	srai	fp,r22,31
     d68:	e005883a 	mov	r2,fp
     d6c:	103f120e 	bge	r2,zero,9b8 <___vfprintf_internal_r+0x50c>
     d70:	b004c03a 	cmpne	r2,r22,zero
     d74:	0739c83a 	sub	fp,zero,fp
     d78:	e0b9c83a 	sub	fp,fp,r2
     d7c:	05adc83a 	sub	r22,zero,r22
     d80:	05c00b44 	movi	r23,45
     d84:	00800044 	movi	r2,1
     d88:	003f2f06 	br	a48 <___vfprintf_internal_r+0x59c>
     d8c:	d8c00717 	ldw	r3,28(sp)
     d90:	6080040c 	andi	r2,r12,16
     d94:	1d800017 	ldw	r22,0(r3)
     d98:	18c00104 	addi	r3,r3,4
     d9c:	d8c00715 	stw	r3,28(sp)
     da0:	1000031e 	bne	r2,zero,db0 <___vfprintf_internal_r+0x904>
     da4:	6080100c 	andi	r2,r12,64
     da8:	10000126 	beq	r2,zero,db0 <___vfprintf_internal_r+0x904>
     dac:	b5bfffcc 	andi	r22,r22,65535
     db0:	0039883a 	mov	fp,zero
     db4:	00800044 	movi	r2,1
     db8:	003f2206 	br	a44 <___vfprintf_internal_r+0x598>
     dbc:	d8c00717 	ldw	r3,28(sp)
     dc0:	6080040c 	andi	r2,r12,16
     dc4:	1d800017 	ldw	r22,0(r3)
     dc8:	18c00104 	addi	r3,r3,4
     dcc:	d8c00715 	stw	r3,28(sp)
     dd0:	1000031e 	bne	r2,zero,de0 <___vfprintf_internal_r+0x934>
     dd4:	6080100c 	andi	r2,r12,64
     dd8:	10000126 	beq	r2,zero,de0 <___vfprintf_internal_r+0x934>
     ddc:	b5bfffcc 	andi	r22,r22,65535
     de0:	0039883a 	mov	fp,zero
     de4:	0005883a 	mov	r2,zero
     de8:	003f1606 	br	a44 <___vfprintf_internal_r+0x598>
     dec:	d9000517 	ldw	r4,20(sp)
     df0:	0004bb80 	call	4bb8 <__sinit>
     df4:	003dc606 	br	510 <___vfprintf_internal_r+0x64>
     df8:	b039d7fa 	srai	fp,r22,31
     dfc:	e005883a 	mov	r2,fp
     e00:	003eec06 	br	9b4 <___vfprintf_internal_r+0x508>
     e04:	1819883a 	mov	r12,r3
     e08:	e0036d1e 	bne	fp,zero,1bc0 <___vfprintf_internal_r+0x1714>
     e0c:	b08002a8 	cmpgeui	r2,r22,10
     e10:	10036b1e 	bne	r2,zero,1bc0 <___vfprintf_internal_r+0x1714>
     e14:	b5800c04 	addi	r22,r22,48
     e18:	dd8029c5 	stb	r22,167(sp)
     e1c:	6007883a 	mov	r3,r12
     e20:	07000044 	movi	fp,1
     e24:	dd4029c4 	addi	r21,sp,167
     e28:	003f2906 	br	ad0 <___vfprintf_internal_r+0x624>
     e2c:	d8800717 	ldw	r2,28(sp)
     e30:	12800017 	ldw	r10,0(r2)
     e34:	10800104 	addi	r2,r2,4
     e38:	5002ee0e 	bge	r10,zero,19f4 <___vfprintf_internal_r+0x1548>
     e3c:	0295c83a 	sub	r10,zero,r10
     e40:	d8800715 	stw	r2,28(sp)
     e44:	a2c00007 	ldb	r11,0(r20)
     e48:	63000114 	ori	r12,r12,4
     e4c:	003de706 	br	5ec <___vfprintf_internal_r+0x140>
     e50:	a2c00007 	ldb	r11,0(r20)
     e54:	a0800044 	addi	r2,r20,1
     e58:	58c00aa0 	cmpeqi	r3,r11,42
     e5c:	1806a21e 	bne	r3,zero,28e8 <___vfprintf_internal_r+0x243c>
     e60:	58fff404 	addi	r3,r11,-48
     e64:	190002b0 	cmpltui	r4,r3,10
     e68:	1029883a 	mov	r20,r2
     e6c:	0025883a 	mov	r18,zero
     e70:	203ddf26 	beq	r4,zero,5f0 <___vfprintf_internal_r+0x144>
     e74:	900490ba 	slli	r2,r18,2
     e78:	a2c00007 	ldb	r11,0(r20)
     e7c:	a5000044 	addi	r20,r20,1
     e80:	14a5883a 	add	r18,r2,r18
     e84:	94a5883a 	add	r18,r18,r18
     e88:	90e5883a 	add	r18,r18,r3
     e8c:	58fff404 	addi	r3,r11,-48
     e90:	188002b0 	cmpltui	r2,r3,10
     e94:	103ff71e 	bne	r2,zero,e74 <___vfprintf_internal_r+0x9c8>
     e98:	003dd506 	br	5f0 <___vfprintf_internal_r+0x144>
     e9c:	a2c00007 	ldb	r11,0(r20)
     ea0:	63002014 	ori	r12,r12,128
     ea4:	003dd106 	br	5ec <___vfprintf_internal_r+0x140>
     ea8:	00800ac4 	movi	r2,43
     eac:	a2c00007 	ldb	r11,0(r20)
     eb0:	d8801645 	stb	r2,89(sp)
     eb4:	003dcd06 	br	5ec <___vfprintf_internal_r+0x140>
     eb8:	a2c00007 	ldb	r11,0(r20)
     ebc:	63000054 	ori	r12,r12,1
     ec0:	003dca06 	br	5ec <___vfprintf_internal_r+0x140>
     ec4:	d8801647 	ldb	r2,89(sp)
     ec8:	a2c00003 	ldbu	r11,0(r20)
     ecc:	10000c1e 	bne	r2,zero,f00 <___vfprintf_internal_r+0xa54>
     ed0:	5ac03fcc 	andi	r11,r11,255
     ed4:	00800804 	movi	r2,32
     ed8:	5ac0201c 	xori	r11,r11,128
     edc:	d8801645 	stb	r2,89(sp)
     ee0:	5affe004 	addi	r11,r11,-128
     ee4:	003dc106 	br	5ec <___vfprintf_internal_r+0x140>
     ee8:	a2c00007 	ldb	r11,0(r20)
     eec:	58801b18 	cmpnei	r2,r11,108
     ef0:	1002be1e 	bne	r2,zero,19ec <___vfprintf_internal_r+0x1540>
     ef4:	a2c00043 	ldbu	r11,1(r20)
     ef8:	63000814 	ori	r12,r12,32
     efc:	a5000044 	addi	r20,r20,1
     f00:	5ac03fcc 	andi	r11,r11,255
     f04:	5ac0201c 	xori	r11,r11,128
     f08:	5affe004 	addi	r11,r11,-128
     f0c:	003db706 	br	5ec <___vfprintf_internal_r+0x140>
     f10:	a2c00007 	ldb	r11,0(r20)
     f14:	63000214 	ori	r12,r12,8
     f18:	003db406 	br	5ec <___vfprintf_internal_r+0x140>
     f1c:	a2c00007 	ldb	r11,0(r20)
     f20:	63001014 	ori	r12,r12,64
     f24:	003db106 	br	5ec <___vfprintf_internal_r+0x140>
     f28:	d8c00717 	ldw	r3,28(sp)
     f2c:	d8001645 	stb	zero,89(sp)
     f30:	03400044 	movi	r13,1
     f34:	18800017 	ldw	r2,0(r3)
     f38:	18c00104 	addi	r3,r3,4
     f3c:	d8c00715 	stw	r3,28(sp)
     f40:	d8802005 	stb	r2,128(sp)
     f44:	07000044 	movi	fp,1
     f48:	dd402004 	addi	r21,sp,128
     f4c:	003e1d06 	br	7c4 <___vfprintf_internal_r+0x318>
     f50:	d8800717 	ldw	r2,28(sp)
     f54:	d8001645 	stb	zero,89(sp)
     f58:	15400017 	ldw	r21,0(r2)
     f5c:	15800104 	addi	r22,r2,4
     f60:	a802e726 	beq	r21,zero,1b00 <___vfprintf_internal_r+0x1654>
     f64:	90bfffe0 	cmpeqi	r2,r18,-1
     f68:	10047d1e 	bne	r2,zero,2160 <___vfprintf_internal_r+0x1cb4>
     f6c:	900d883a 	mov	r6,r18
     f70:	000b883a 	mov	r5,zero
     f74:	a809883a 	mov	r4,r21
     f78:	da800f15 	stw	r10,60(sp)
     f7c:	db000815 	stw	r12,32(sp)
     f80:	dac00715 	stw	r11,28(sp)
     f84:	00060140 	call	6014 <memchr>
     f88:	dac00717 	ldw	r11,28(sp)
     f8c:	db000817 	ldw	r12,32(sp)
     f90:	da800f17 	ldw	r10,60(sp)
     f94:	1005ca26 	beq	r2,zero,26c0 <___vfprintf_internal_r+0x2214>
     f98:	1579c83a 	sub	fp,r2,r21
     f9c:	e01b883a 	mov	r13,fp
     fa0:	dd800715 	stw	r22,28(sp)
     fa4:	003e0706 	br	7c4 <___vfprintf_internal_r+0x318>
     fa8:	a2c00007 	ldb	r11,0(r20)
     fac:	63000814 	ori	r12,r12,32
     fb0:	003d8e06 	br	5ec <___vfprintf_internal_r+0x140>
     fb4:	d8c00717 	ldw	r3,28(sp)
     fb8:	009e0c04 	movi	r2,30768
     fbc:	01000074 	movhi	r4,1
     fc0:	d880168d 	sth	r2,90(sp)
     fc4:	18800104 	addi	r2,r3,4
     fc8:	d8800715 	stw	r2,28(sp)
     fcc:	20817104 	addi	r2,r4,1476
     fd0:	d8800e15 	stw	r2,56(sp)
     fd4:	1d800017 	ldw	r22,0(r3)
     fd8:	0039883a 	mov	fp,zero
     fdc:	63000094 	ori	r12,r12,2
     fe0:	00800084 	movi	r2,2
     fe4:	02c01e04 	movi	r11,120
     fe8:	003e9606 	br	a44 <___vfprintf_internal_r+0x598>
     fec:	6080080c 	andi	r2,r12,32
     ff0:	10028a26 	beq	r2,zero,1a1c <___vfprintf_internal_r+0x1570>
     ff4:	d9000617 	ldw	r4,24(sp)
     ff8:	d8800717 	ldw	r2,28(sp)
     ffc:	2007d7fa 	srai	r3,r4,31
    1000:	10800017 	ldw	r2,0(r2)
    1004:	11000015 	stw	r4,0(r2)
    1008:	10c00115 	stw	r3,4(r2)
    100c:	d8800717 	ldw	r2,28(sp)
    1010:	10800104 	addi	r2,r2,4
    1014:	d8800715 	stw	r2,28(sp)
    1018:	003d5e06 	br	594 <___vfprintf_internal_r+0xe8>
    101c:	5ac01990 	cmplti	r11,r11,102
    1020:	5800e91e 	bne	r11,zero,13c8 <___vfprintf_internal_r+0xf1c>
    1024:	d9000a17 	ldw	r4,40(sp)
    1028:	d9400b17 	ldw	r5,44(sp)
    102c:	000d883a 	mov	r6,zero
    1030:	000f883a 	mov	r7,zero
    1034:	db401115 	stw	r13,68(sp)
    1038:	da801015 	stw	r10,64(sp)
    103c:	d8c00f15 	stw	r3,60(sp)
    1040:	000c2a80 	call	c2a8 <__eqdf2>
    1044:	d8c00f17 	ldw	r3,60(sp)
    1048:	da801017 	ldw	r10,64(sp)
    104c:	db401117 	ldw	r13,68(sp)
    1050:	1001a21e 	bne	r2,zero,16dc <___vfprintf_internal_r+0x1230>
    1054:	d8801e17 	ldw	r2,120(sp)
    1058:	01000074 	movhi	r4,1
    105c:	21017804 	addi	r4,r4,1504
    1060:	10800044 	addi	r2,r2,1
    1064:	b5800044 	addi	r22,r22,1
    1068:	81000015 	stw	r4,0(r16)
    106c:	01000044 	movi	r4,1
    1070:	d8801e15 	stw	r2,120(sp)
    1074:	81000115 	stw	r4,4(r16)
    1078:	dd801f15 	stw	r22,124(sp)
    107c:	10800208 	cmpgei	r2,r2,8
    1080:	1003ce1e 	bne	r2,zero,1fbc <___vfprintf_internal_r+0x1b10>
    1084:	84000204 	addi	r16,r16,8
    1088:	d8801717 	ldw	r2,92(sp)
    108c:	d9000917 	ldw	r4,36(sp)
    1090:	11000416 	blt	r2,r4,10a4 <___vfprintf_internal_r+0xbf8>
    1094:	1880004c 	andi	r2,r3,1
    1098:	1000021e 	bne	r2,zero,10a4 <___vfprintf_internal_r+0xbf8>
    109c:	b009883a 	mov	r4,r22
    10a0:	003dfe06 	br	89c <___vfprintf_internal_r+0x3f0>
    10a4:	d8800d17 	ldw	r2,52(sp)
    10a8:	d9400c17 	ldw	r5,48(sp)
    10ac:	80800015 	stw	r2,0(r16)
    10b0:	d8801e17 	ldw	r2,120(sp)
    10b4:	2d89883a 	add	r4,r5,r22
    10b8:	81400115 	stw	r5,4(r16)
    10bc:	10800044 	addi	r2,r2,1
    10c0:	d8801e15 	stw	r2,120(sp)
    10c4:	d9001f15 	stw	r4,124(sp)
    10c8:	10800208 	cmpgei	r2,r2,8
    10cc:	10026a1e 	bne	r2,zero,1a78 <___vfprintf_internal_r+0x15cc>
    10d0:	84000204 	addi	r16,r16,8
    10d4:	d8800917 	ldw	r2,36(sp)
    10d8:	14bfffc4 	addi	r18,r2,-1
    10dc:	04bdef0e 	bge	zero,r18,89c <___vfprintf_internal_r+0x3f0>
    10e0:	05800074 	movhi	r22,1
    10e4:	91400450 	cmplti	r5,r18,17
    10e8:	d8801e17 	ldw	r2,120(sp)
    10ec:	b5817904 	addi	r22,r22,1508
    10f0:	28013e1e 	bne	r5,zero,15ec <___vfprintf_internal_r+0x1140>
    10f4:	800b883a 	mov	r5,r16
    10f8:	9039883a 	mov	fp,r18
    10fc:	1821883a 	mov	r16,r3
    1100:	b02b883a 	mov	r21,r22
    1104:	05c00404 	movi	r23,16
    1108:	982d883a 	mov	r22,r19
    110c:	5025883a 	mov	r18,r10
    1110:	6827883a 	mov	r19,r13
    1114:	2807883a 	mov	r3,r5
    1118:	00000406 	br	112c <___vfprintf_internal_r+0xc80>
    111c:	18c00204 	addi	r3,r3,8
    1120:	e73ffc04 	addi	fp,fp,-16
    1124:	e1400448 	cmpgei	r5,fp,17
    1128:	28012826 	beq	r5,zero,15cc <___vfprintf_internal_r+0x1120>
    112c:	10800044 	addi	r2,r2,1
    1130:	21000404 	addi	r4,r4,16
    1134:	1d400015 	stw	r21,0(r3)
    1138:	1dc00115 	stw	r23,4(r3)
    113c:	d9001f15 	stw	r4,124(sp)
    1140:	d8801e15 	stw	r2,120(sp)
    1144:	11400208 	cmpgei	r5,r2,8
    1148:	283ff426 	beq	r5,zero,111c <___vfprintf_internal_r+0xc70>
    114c:	d9400417 	ldw	r5,16(sp)
    1150:	d9000517 	ldw	r4,20(sp)
    1154:	d9801d04 	addi	r6,sp,116
    1158:	0007edc0 	call	7edc <__sprint_r>
    115c:	103ddf1e 	bne	r2,zero,8dc <___vfprintf_internal_r+0x430>
    1160:	d9001f17 	ldw	r4,124(sp)
    1164:	d8801e17 	ldw	r2,120(sp)
    1168:	8807883a 	mov	r3,r17
    116c:	003fec06 	br	1120 <___vfprintf_internal_r+0xc74>
    1170:	536fc83a 	sub	r23,r10,r13
    1174:	05fdbb0e 	bge	zero,r23,864 <___vfprintf_internal_r+0x3b8>
    1178:	b009883a 	mov	r4,r22
    117c:	b9400450 	cmplti	r5,r23,17
    1180:	05800074 	movhi	r22,1
    1184:	d8801e17 	ldw	r2,120(sp)
    1188:	b5817904 	addi	r22,r22,1508
    118c:	28002e1e 	bne	r5,zero,1248 <___vfprintf_internal_r+0xd9c>
    1190:	d8c01015 	stw	r3,64(sp)
    1194:	03000404 	movi	r12,16
    1198:	8007883a 	mov	r3,r16
    119c:	dac00f15 	stw	r11,60(sp)
    11a0:	b821883a 	mov	r16,r23
    11a4:	da801115 	stw	r10,68(sp)
    11a8:	982f883a 	mov	r23,r19
    11ac:	9027883a 	mov	r19,r18
    11b0:	b025883a 	mov	r18,r22
    11b4:	a02d883a 	mov	r22,r20
    11b8:	6829883a 	mov	r20,r13
    11bc:	00000406 	br	11d0 <___vfprintf_internal_r+0xd24>
    11c0:	843ffc04 	addi	r16,r16,-16
    11c4:	81400448 	cmpgei	r5,r16,17
    11c8:	18c00204 	addi	r3,r3,8
    11cc:	28001426 	beq	r5,zero,1220 <___vfprintf_internal_r+0xd74>
    11d0:	10800044 	addi	r2,r2,1
    11d4:	21000404 	addi	r4,r4,16
    11d8:	1c800015 	stw	r18,0(r3)
    11dc:	1b000115 	stw	r12,4(r3)
    11e0:	d9001f15 	stw	r4,124(sp)
    11e4:	d8801e15 	stw	r2,120(sp)
    11e8:	11400208 	cmpgei	r5,r2,8
    11ec:	283ff426 	beq	r5,zero,11c0 <___vfprintf_internal_r+0xd14>
    11f0:	d9400417 	ldw	r5,16(sp)
    11f4:	d9000517 	ldw	r4,20(sp)
    11f8:	d9801d04 	addi	r6,sp,116
    11fc:	0007edc0 	call	7edc <__sprint_r>
    1200:	103db61e 	bne	r2,zero,8dc <___vfprintf_internal_r+0x430>
    1204:	843ffc04 	addi	r16,r16,-16
    1208:	81400448 	cmpgei	r5,r16,17
    120c:	d9001f17 	ldw	r4,124(sp)
    1210:	d8801e17 	ldw	r2,120(sp)
    1214:	8807883a 	mov	r3,r17
    1218:	03000404 	movi	r12,16
    121c:	283fec1e 	bne	r5,zero,11d0 <___vfprintf_internal_r+0xd24>
    1220:	a01b883a 	mov	r13,r20
    1224:	dac00f17 	ldw	r11,60(sp)
    1228:	b029883a 	mov	r20,r22
    122c:	da801117 	ldw	r10,68(sp)
    1230:	902d883a 	mov	r22,r18
    1234:	9825883a 	mov	r18,r19
    1238:	b827883a 	mov	r19,r23
    123c:	802f883a 	mov	r23,r16
    1240:	1821883a 	mov	r16,r3
    1244:	d8c01017 	ldw	r3,64(sp)
    1248:	10800044 	addi	r2,r2,1
    124c:	b909883a 	add	r4,r23,r4
    1250:	d8801e15 	stw	r2,120(sp)
    1254:	85800015 	stw	r22,0(r16)
    1258:	85c00115 	stw	r23,4(r16)
    125c:	d9001f15 	stw	r4,124(sp)
    1260:	10800208 	cmpgei	r2,r2,8
    1264:	1003721e 	bne	r2,zero,2030 <___vfprintf_internal_r+0x1b84>
    1268:	9725c83a 	sub	r18,r18,fp
    126c:	84000204 	addi	r16,r16,8
    1270:	202d883a 	mov	r22,r4
    1274:	04bd7d0e 	bge	zero,r18,86c <___vfprintf_internal_r+0x3c0>
    1278:	91400450 	cmplti	r5,r18,17
    127c:	d8801e17 	ldw	r2,120(sp)
    1280:	b009883a 	mov	r4,r22
    1284:	2803c51e 	bne	r5,zero,219c <___vfprintf_internal_r+0x1cf0>
    1288:	982d883a 	mov	r22,r19
    128c:	d8c01015 	stw	r3,64(sp)
    1290:	05c00404 	movi	r23,16
    1294:	8007883a 	mov	r3,r16
    1298:	dac00f15 	stw	r11,60(sp)
    129c:	9021883a 	mov	r16,r18
    12a0:	da801115 	stw	r10,68(sp)
    12a4:	9825883a 	mov	r18,r19
    12a8:	6827883a 	mov	r19,r13
    12ac:	00000406 	br	12c0 <___vfprintf_internal_r+0xe14>
    12b0:	843ffc04 	addi	r16,r16,-16
    12b4:	81400448 	cmpgei	r5,r16,17
    12b8:	18c00204 	addi	r3,r3,8
    12bc:	28001326 	beq	r5,zero,130c <___vfprintf_internal_r+0xe60>
    12c0:	10800044 	addi	r2,r2,1
    12c4:	21000404 	addi	r4,r4,16
    12c8:	1c800015 	stw	r18,0(r3)
    12cc:	1dc00115 	stw	r23,4(r3)
    12d0:	d9001f15 	stw	r4,124(sp)
    12d4:	d8801e15 	stw	r2,120(sp)
    12d8:	11400208 	cmpgei	r5,r2,8
    12dc:	283ff426 	beq	r5,zero,12b0 <___vfprintf_internal_r+0xe04>
    12e0:	d9400417 	ldw	r5,16(sp)
    12e4:	d9000517 	ldw	r4,20(sp)
    12e8:	d9801d04 	addi	r6,sp,116
    12ec:	0007edc0 	call	7edc <__sprint_r>
    12f0:	103d7a1e 	bne	r2,zero,8dc <___vfprintf_internal_r+0x430>
    12f4:	843ffc04 	addi	r16,r16,-16
    12f8:	81400448 	cmpgei	r5,r16,17
    12fc:	d9001f17 	ldw	r4,124(sp)
    1300:	d8801e17 	ldw	r2,120(sp)
    1304:	8807883a 	mov	r3,r17
    1308:	283fed1e 	bne	r5,zero,12c0 <___vfprintf_internal_r+0xe14>
    130c:	981b883a 	mov	r13,r19
    1310:	dac00f17 	ldw	r11,60(sp)
    1314:	9027883a 	mov	r19,r18
    1318:	da801117 	ldw	r10,68(sp)
    131c:	8025883a 	mov	r18,r16
    1320:	1821883a 	mov	r16,r3
    1324:	d8c01017 	ldw	r3,64(sp)
    1328:	10800044 	addi	r2,r2,1
    132c:	9109883a 	add	r4,r18,r4
    1330:	d8801e15 	stw	r2,120(sp)
    1334:	85800015 	stw	r22,0(r16)
    1338:	84800115 	stw	r18,4(r16)
    133c:	d9001f15 	stw	r4,124(sp)
    1340:	10800208 	cmpgei	r2,r2,8
    1344:	10018b1e 	bne	r2,zero,1974 <___vfprintf_internal_r+0x14c8>
    1348:	84000204 	addi	r16,r16,8
    134c:	202d883a 	mov	r22,r4
    1350:	003d4606 	br	86c <___vfprintf_internal_r+0x3c0>
    1354:	11000060 	cmpeqi	r4,r2,1
    1358:	1819883a 	mov	r12,r3
    135c:	002d883a 	mov	r22,zero
    1360:	203eac1e 	bne	r4,zero,e14 <___vfprintf_internal_r+0x968>
    1364:	108000a0 	cmpeqi	r2,r2,2
    1368:	0039883a 	mov	fp,zero
    136c:	103dc226 	beq	r2,zero,a78 <___vfprintf_internal_r+0x5cc>
    1370:	d9000e17 	ldw	r4,56(sp)
    1374:	882b883a 	mov	r21,r17
    1378:	b08003cc 	andi	r2,r22,15
    137c:	e006973a 	slli	r3,fp,28
    1380:	b02cd13a 	srli	r22,r22,4
    1384:	2085883a 	add	r2,r4,r2
    1388:	10800003 	ldbu	r2,0(r2)
    138c:	e038d13a 	srli	fp,fp,4
    1390:	1dacb03a 	or	r22,r3,r22
    1394:	a8bfffc5 	stb	r2,-1(r21)
    1398:	b704b03a 	or	r2,r22,fp
    139c:	ad7fffc4 	addi	r21,r21,-1
    13a0:	103ff51e 	bne	r2,zero,1378 <___vfprintf_internal_r+0xecc>
    13a4:	8d79c83a 	sub	fp,r17,r21
    13a8:	6007883a 	mov	r3,r12
    13ac:	003dc806 	br	ad0 <___vfprintf_internal_r+0x624>
    13b0:	d9400417 	ldw	r5,16(sp)
    13b4:	d9000517 	ldw	r4,20(sp)
    13b8:	d9801d04 	addi	r6,sp,116
    13bc:	0007edc0 	call	7edc <__sprint_r>
    13c0:	103d4026 	beq	r2,zero,8c4 <___vfprintf_internal_r+0x418>
    13c4:	003d4506 	br	8dc <___vfprintf_internal_r+0x430>
    13c8:	d8800917 	ldw	r2,36(sp)
    13cc:	84800204 	addi	r18,r16,8
    13d0:	10800088 	cmpgei	r2,r2,2
    13d4:	10012126 	beq	r2,zero,185c <___vfprintf_internal_r+0x13b0>
    13d8:	df001e17 	ldw	fp,120(sp)
    13dc:	00800044 	movi	r2,1
    13e0:	b5800044 	addi	r22,r22,1
    13e4:	e7000044 	addi	fp,fp,1
    13e8:	80800115 	stw	r2,4(r16)
    13ec:	85400015 	stw	r21,0(r16)
    13f0:	dd801f15 	stw	r22,124(sp)
    13f4:	df001e15 	stw	fp,120(sp)
    13f8:	e0800210 	cmplti	r2,fp,8
    13fc:	10023126 	beq	r2,zero,1cc4 <___vfprintf_internal_r+0x1818>
    1400:	d8800c17 	ldw	r2,48(sp)
    1404:	d9000d17 	ldw	r4,52(sp)
    1408:	e7000044 	addi	fp,fp,1
    140c:	15af883a 	add	r23,r2,r22
    1410:	90800115 	stw	r2,4(r18)
    1414:	91000015 	stw	r4,0(r18)
    1418:	ddc01f15 	stw	r23,124(sp)
    141c:	df001e15 	stw	fp,120(sp)
    1420:	e0800208 	cmpgei	r2,fp,8
    1424:	1002361e 	bne	r2,zero,1d00 <___vfprintf_internal_r+0x1854>
    1428:	94800204 	addi	r18,r18,8
    142c:	d9000a17 	ldw	r4,40(sp)
    1430:	d9400b17 	ldw	r5,44(sp)
    1434:	000d883a 	mov	r6,zero
    1438:	000f883a 	mov	r7,zero
    143c:	db401015 	stw	r13,64(sp)
    1440:	da800f15 	stw	r10,60(sp)
    1444:	d8c00815 	stw	r3,32(sp)
    1448:	000c2a80 	call	c2a8 <__eqdf2>
    144c:	d8c00917 	ldw	r3,36(sp)
    1450:	da800f17 	ldw	r10,60(sp)
    1454:	db401017 	ldw	r13,64(sp)
    1458:	1c3fffc4 	addi	r16,r3,-1
    145c:	d8c00817 	ldw	r3,32(sp)
    1460:	10011c26 	beq	r2,zero,18d4 <___vfprintf_internal_r+0x1428>
    1464:	aa000044 	addi	r8,r21,1
    1468:	e7000044 	addi	fp,fp,1
    146c:	bc2f883a 	add	r23,r23,r16
    1470:	92000015 	stw	r8,0(r18)
    1474:	94000115 	stw	r16,4(r18)
    1478:	ddc01f15 	stw	r23,124(sp)
    147c:	df001e15 	stw	fp,120(sp)
    1480:	e0800208 	cmpgei	r2,fp,8
    1484:	1002db1e 	bne	r2,zero,1ff4 <___vfprintf_internal_r+0x1b48>
    1488:	94800204 	addi	r18,r18,8
    148c:	d9401217 	ldw	r5,72(sp)
    1490:	e7000044 	addi	fp,fp,1
    1494:	d8801904 	addi	r2,sp,100
    1498:	2dc9883a 	add	r4,r5,r23
    149c:	df001e15 	stw	fp,120(sp)
    14a0:	90800015 	stw	r2,0(r18)
    14a4:	91400115 	stw	r5,4(r18)
    14a8:	d9001f15 	stw	r4,124(sp)
    14ac:	e7000208 	cmpgei	fp,fp,8
    14b0:	e001401e 	bne	fp,zero,19b4 <___vfprintf_internal_r+0x1508>
    14b4:	94000204 	addi	r16,r18,8
    14b8:	003cf806 	br	89c <___vfprintf_internal_r+0x3f0>
    14bc:	05c00074 	movhi	r23,1
    14c0:	b1400450 	cmplti	r5,r22,17
    14c4:	d9001f17 	ldw	r4,124(sp)
    14c8:	d8801e17 	ldw	r2,120(sp)
    14cc:	bdc17d04 	addi	r23,r23,1524
    14d0:	2800341e 	bne	r5,zero,15a4 <___vfprintf_internal_r+0x10f8>
    14d4:	980b883a 	mov	r5,r19
    14d8:	d8c01315 	stw	r3,76(sp)
    14dc:	9027883a 	mov	r19,r18
    14e0:	8007883a 	mov	r3,r16
    14e4:	b825883a 	mov	r18,r23
    14e8:	b021883a 	mov	r16,r22
    14ec:	03c00404 	movi	r15,16
    14f0:	a02d883a 	mov	r22,r20
    14f4:	db800f15 	stw	r14,60(sp)
    14f8:	db001015 	stw	r12,64(sp)
    14fc:	dac01115 	stw	r11,68(sp)
    1500:	da801415 	stw	r10,80(sp)
    1504:	6829883a 	mov	r20,r13
    1508:	282f883a 	mov	r23,r5
    150c:	00000406 	br	1520 <___vfprintf_internal_r+0x1074>
    1510:	843ffc04 	addi	r16,r16,-16
    1514:	81400448 	cmpgei	r5,r16,17
    1518:	18c00204 	addi	r3,r3,8
    151c:	28001426 	beq	r5,zero,1570 <___vfprintf_internal_r+0x10c4>
    1520:	10800044 	addi	r2,r2,1
    1524:	21000404 	addi	r4,r4,16
    1528:	1c800015 	stw	r18,0(r3)
    152c:	1bc00115 	stw	r15,4(r3)
    1530:	d9001f15 	stw	r4,124(sp)
    1534:	d8801e15 	stw	r2,120(sp)
    1538:	11400208 	cmpgei	r5,r2,8
    153c:	283ff426 	beq	r5,zero,1510 <___vfprintf_internal_r+0x1064>
    1540:	d9400417 	ldw	r5,16(sp)
    1544:	d9000517 	ldw	r4,20(sp)
    1548:	d9801d04 	addi	r6,sp,116
    154c:	0007edc0 	call	7edc <__sprint_r>
    1550:	103ce21e 	bne	r2,zero,8dc <___vfprintf_internal_r+0x430>
    1554:	843ffc04 	addi	r16,r16,-16
    1558:	81400448 	cmpgei	r5,r16,17
    155c:	d9001f17 	ldw	r4,124(sp)
    1560:	d8801e17 	ldw	r2,120(sp)
    1564:	8807883a 	mov	r3,r17
    1568:	03c00404 	movi	r15,16
    156c:	283fec1e 	bne	r5,zero,1520 <___vfprintf_internal_r+0x1074>
    1570:	a01b883a 	mov	r13,r20
    1574:	db800f17 	ldw	r14,60(sp)
    1578:	b029883a 	mov	r20,r22
    157c:	db001017 	ldw	r12,64(sp)
    1580:	802d883a 	mov	r22,r16
    1584:	dac01117 	ldw	r11,68(sp)
    1588:	1821883a 	mov	r16,r3
    158c:	da801417 	ldw	r10,80(sp)
    1590:	d8c01317 	ldw	r3,76(sp)
    1594:	b80b883a 	mov	r5,r23
    1598:	902f883a 	mov	r23,r18
    159c:	9825883a 	mov	r18,r19
    15a0:	2827883a 	mov	r19,r5
    15a4:	10800044 	addi	r2,r2,1
    15a8:	b109883a 	add	r4,r22,r4
    15ac:	d8801e15 	stw	r2,120(sp)
    15b0:	85c00015 	stw	r23,0(r16)
    15b4:	85800115 	stw	r22,4(r16)
    15b8:	d9001f15 	stw	r4,124(sp)
    15bc:	10800208 	cmpgei	r2,r2,8
    15c0:	1001de1e 	bne	r2,zero,1d3c <___vfprintf_internal_r+0x1890>
    15c4:	84000204 	addi	r16,r16,8
    15c8:	003c8806 	br	7ec <___vfprintf_internal_r+0x340>
    15cc:	180b883a 	mov	r5,r3
    15d0:	9015883a 	mov	r10,r18
    15d4:	8007883a 	mov	r3,r16
    15d8:	981b883a 	mov	r13,r19
    15dc:	e025883a 	mov	r18,fp
    15e0:	b027883a 	mov	r19,r22
    15e4:	2821883a 	mov	r16,r5
    15e8:	a82d883a 	mov	r22,r21
    15ec:	10800044 	addi	r2,r2,1
    15f0:	85800015 	stw	r22,0(r16)
    15f4:	84800115 	stw	r18,4(r16)
    15f8:	2489883a 	add	r4,r4,r18
    15fc:	d8801e15 	stw	r2,120(sp)
    1600:	d9001f15 	stw	r4,124(sp)
    1604:	10800208 	cmpgei	r2,r2,8
    1608:	103ca326 	beq	r2,zero,898 <___vfprintf_internal_r+0x3ec>
    160c:	d9400417 	ldw	r5,16(sp)
    1610:	d9000517 	ldw	r4,20(sp)
    1614:	d9801d04 	addi	r6,sp,116
    1618:	db401015 	stw	r13,64(sp)
    161c:	da800f15 	stw	r10,60(sp)
    1620:	d8c00815 	stw	r3,32(sp)
    1624:	0007edc0 	call	7edc <__sprint_r>
    1628:	103cac1e 	bne	r2,zero,8dc <___vfprintf_internal_r+0x430>
    162c:	d9001f17 	ldw	r4,124(sp)
    1630:	d8c00817 	ldw	r3,32(sp)
    1634:	da800f17 	ldw	r10,60(sp)
    1638:	db401017 	ldw	r13,64(sp)
    163c:	8821883a 	mov	r16,r17
    1640:	003c9606 	br	89c <___vfprintf_internal_r+0x3f0>
    1644:	d9400417 	ldw	r5,16(sp)
    1648:	d9000517 	ldw	r4,20(sp)
    164c:	d9801d04 	addi	r6,sp,116
    1650:	db401515 	stw	r13,84(sp)
    1654:	da801415 	stw	r10,80(sp)
    1658:	d8c01315 	stw	r3,76(sp)
    165c:	dac01115 	stw	r11,68(sp)
    1660:	db001015 	stw	r12,64(sp)
    1664:	db800f15 	stw	r14,60(sp)
    1668:	0007edc0 	call	7edc <__sprint_r>
    166c:	103c9b1e 	bne	r2,zero,8dc <___vfprintf_internal_r+0x430>
    1670:	dd801f17 	ldw	r22,124(sp)
    1674:	db401517 	ldw	r13,84(sp)
    1678:	da801417 	ldw	r10,80(sp)
    167c:	d8c01317 	ldw	r3,76(sp)
    1680:	dac01117 	ldw	r11,68(sp)
    1684:	db001017 	ldw	r12,64(sp)
    1688:	db800f17 	ldw	r14,60(sp)
    168c:	8821883a 	mov	r16,r17
    1690:	003c6506 	br	828 <___vfprintf_internal_r+0x37c>
    1694:	d9400417 	ldw	r5,16(sp)
    1698:	d9000517 	ldw	r4,20(sp)
    169c:	d9801d04 	addi	r6,sp,116
    16a0:	db401415 	stw	r13,80(sp)
    16a4:	da801315 	stw	r10,76(sp)
    16a8:	d8c01115 	stw	r3,68(sp)
    16ac:	dac01015 	stw	r11,64(sp)
    16b0:	db000f15 	stw	r12,60(sp)
    16b4:	0007edc0 	call	7edc <__sprint_r>
    16b8:	103c881e 	bne	r2,zero,8dc <___vfprintf_internal_r+0x430>
    16bc:	dd801f17 	ldw	r22,124(sp)
    16c0:	db401417 	ldw	r13,80(sp)
    16c4:	da801317 	ldw	r10,76(sp)
    16c8:	d8c01117 	ldw	r3,68(sp)
    16cc:	dac01017 	ldw	r11,64(sp)
    16d0:	db000f17 	ldw	r12,60(sp)
    16d4:	8821883a 	mov	r16,r17
    16d8:	003c6006 	br	85c <___vfprintf_internal_r+0x3b0>
    16dc:	dc801717 	ldw	r18,92(sp)
    16e0:	0481a90e 	bge	zero,r18,1d88 <___vfprintf_internal_r+0x18dc>
    16e4:	d8800917 	ldw	r2,36(sp)
    16e8:	d9000817 	ldw	r4,32(sp)
    16ec:	1025883a 	mov	r18,r2
    16f0:	2080d316 	blt	r4,r2,1a40 <___vfprintf_internal_r+0x1594>
    16f4:	04800a0e 	bge	zero,r18,1720 <___vfprintf_internal_r+0x1274>
    16f8:	d8801e17 	ldw	r2,120(sp)
    16fc:	b4ad883a 	add	r22,r22,r18
    1700:	85400015 	stw	r21,0(r16)
    1704:	10800044 	addi	r2,r2,1
    1708:	d8801e15 	stw	r2,120(sp)
    170c:	84800115 	stw	r18,4(r16)
    1710:	dd801f15 	stw	r22,124(sp)
    1714:	10800208 	cmpgei	r2,r2,8
    1718:	1003b61e 	bne	r2,zero,25f4 <___vfprintf_internal_r+0x2148>
    171c:	84000204 	addi	r16,r16,8
    1720:	9000d316 	blt	r18,zero,1a70 <___vfprintf_internal_r+0x15c4>
    1724:	d8800817 	ldw	r2,32(sp)
    1728:	14a5c83a 	sub	r18,r2,r18
    172c:	04810016 	blt	zero,r18,1b30 <___vfprintf_internal_r+0x1684>
    1730:	dc801717 	ldw	r18,92(sp)
    1734:	d9000917 	ldw	r4,36(sp)
    1738:	9100c40e 	bge	r18,r4,1a4c <___vfprintf_internal_r+0x15a0>
    173c:	d8800d17 	ldw	r2,52(sp)
    1740:	d9400c17 	ldw	r5,48(sp)
    1744:	80800015 	stw	r2,0(r16)
    1748:	d8801e17 	ldw	r2,120(sp)
    174c:	2d89883a 	add	r4,r5,r22
    1750:	81400115 	stw	r5,4(r16)
    1754:	10800044 	addi	r2,r2,1
    1758:	d8801e15 	stw	r2,120(sp)
    175c:	d9001f15 	stw	r4,124(sp)
    1760:	10800208 	cmpgei	r2,r2,8
    1764:	1003891e 	bne	r2,zero,258c <___vfprintf_internal_r+0x20e0>
    1768:	84000204 	addi	r16,r16,8
    176c:	d8800917 	ldw	r2,36(sp)
    1770:	d9400817 	ldw	r5,32(sp)
    1774:	14a5c83a 	sub	r18,r2,r18
    1778:	116fc83a 	sub	r23,r2,r5
    177c:	95c0010e 	bge	r18,r23,1784 <___vfprintf_internal_r+0x12d8>
    1780:	902f883a 	mov	r23,r18
    1784:	05c00c0e 	bge	zero,r23,17b8 <___vfprintf_internal_r+0x130c>
    1788:	d8800817 	ldw	r2,32(sp)
    178c:	25c9883a 	add	r4,r4,r23
    1790:	85c00115 	stw	r23,4(r16)
    1794:	a891883a 	add	r8,r21,r2
    1798:	d8801e17 	ldw	r2,120(sp)
    179c:	82000015 	stw	r8,0(r16)
    17a0:	d9001f15 	stw	r4,124(sp)
    17a4:	10800044 	addi	r2,r2,1
    17a8:	d8801e15 	stw	r2,120(sp)
    17ac:	10800208 	cmpgei	r2,r2,8
    17b0:	1003a11e 	bne	r2,zero,2638 <___vfprintf_internal_r+0x218c>
    17b4:	84000204 	addi	r16,r16,8
    17b8:	b800010e 	bge	r23,zero,17c0 <___vfprintf_internal_r+0x1314>
    17bc:	002f883a 	mov	r23,zero
    17c0:	95e5c83a 	sub	r18,r18,r23
    17c4:	04bc350e 	bge	zero,r18,89c <___vfprintf_internal_r+0x3f0>
    17c8:	05800074 	movhi	r22,1
    17cc:	91400450 	cmplti	r5,r18,17
    17d0:	d8801e17 	ldw	r2,120(sp)
    17d4:	b5817904 	addi	r22,r22,1508
    17d8:	283f841e 	bne	r5,zero,15ec <___vfprintf_internal_r+0x1140>
    17dc:	d8c00815 	stw	r3,32(sp)
    17e0:	dd400517 	ldw	r21,20(sp)
    17e4:	8007883a 	mov	r3,r16
    17e8:	df000417 	ldw	fp,16(sp)
    17ec:	9021883a 	mov	r16,r18
    17f0:	05c00404 	movi	r23,16
    17f4:	b025883a 	mov	r18,r22
    17f8:	da800f15 	stw	r10,60(sp)
    17fc:	982d883a 	mov	r22,r19
    1800:	6827883a 	mov	r19,r13
    1804:	00000406 	br	1818 <___vfprintf_internal_r+0x136c>
    1808:	18c00204 	addi	r3,r3,8
    180c:	843ffc04 	addi	r16,r16,-16
    1810:	81400448 	cmpgei	r5,r16,17
    1814:	28036c26 	beq	r5,zero,25c8 <___vfprintf_internal_r+0x211c>
    1818:	10800044 	addi	r2,r2,1
    181c:	21000404 	addi	r4,r4,16
    1820:	1c800015 	stw	r18,0(r3)
    1824:	1dc00115 	stw	r23,4(r3)
    1828:	d9001f15 	stw	r4,124(sp)
    182c:	d8801e15 	stw	r2,120(sp)
    1830:	11400208 	cmpgei	r5,r2,8
    1834:	283ff426 	beq	r5,zero,1808 <___vfprintf_internal_r+0x135c>
    1838:	d9801d04 	addi	r6,sp,116
    183c:	e00b883a 	mov	r5,fp
    1840:	a809883a 	mov	r4,r21
    1844:	0007edc0 	call	7edc <__sprint_r>
    1848:	103c241e 	bne	r2,zero,8dc <___vfprintf_internal_r+0x430>
    184c:	d9001f17 	ldw	r4,124(sp)
    1850:	d8801e17 	ldw	r2,120(sp)
    1854:	8807883a 	mov	r3,r17
    1858:	003fec06 	br	180c <___vfprintf_internal_r+0x1360>
    185c:	1880004c 	andi	r2,r3,1
    1860:	103edd1e 	bne	r2,zero,13d8 <___vfprintf_internal_r+0xf2c>
    1864:	df001e17 	ldw	fp,120(sp)
    1868:	00800044 	movi	r2,1
    186c:	b5c00044 	addi	r23,r22,1
    1870:	e7000044 	addi	fp,fp,1
    1874:	80800115 	stw	r2,4(r16)
    1878:	85400015 	stw	r21,0(r16)
    187c:	ddc01f15 	stw	r23,124(sp)
    1880:	df001e15 	stw	fp,120(sp)
    1884:	e0800210 	cmplti	r2,fp,8
    1888:	103f001e 	bne	r2,zero,148c <___vfprintf_internal_r+0xfe0>
    188c:	d9400417 	ldw	r5,16(sp)
    1890:	d9000517 	ldw	r4,20(sp)
    1894:	d9801d04 	addi	r6,sp,116
    1898:	db401015 	stw	r13,64(sp)
    189c:	da800f15 	stw	r10,60(sp)
    18a0:	d8c00815 	stw	r3,32(sp)
    18a4:	0007edc0 	call	7edc <__sprint_r>
    18a8:	103c0c1e 	bne	r2,zero,8dc <___vfprintf_internal_r+0x430>
    18ac:	ddc01f17 	ldw	r23,124(sp)
    18b0:	df001e17 	ldw	fp,120(sp)
    18b4:	db401017 	ldw	r13,64(sp)
    18b8:	da800f17 	ldw	r10,60(sp)
    18bc:	d8c00817 	ldw	r3,32(sp)
    18c0:	8825883a 	mov	r18,r17
    18c4:	003ef106 	br	148c <___vfprintf_internal_r+0xfe0>
    18c8:	0039883a 	mov	fp,zero
    18cc:	882b883a 	mov	r21,r17
    18d0:	003c7f06 	br	ad0 <___vfprintf_internal_r+0x624>
    18d4:	d8800917 	ldw	r2,36(sp)
    18d8:	10800090 	cmplti	r2,r2,2
    18dc:	103eeb1e 	bne	r2,zero,148c <___vfprintf_internal_r+0xfe0>
    18e0:	d8800917 	ldw	r2,36(sp)
    18e4:	05800074 	movhi	r22,1
    18e8:	b5817904 	addi	r22,r22,1508
    18ec:	10800490 	cmplti	r2,r2,18
    18f0:	1002171e 	bne	r2,zero,2150 <___vfprintf_internal_r+0x1ca4>
    18f4:	b809883a 	mov	r4,r23
    18f8:	e005883a 	mov	r2,fp
    18fc:	a02f883a 	mov	r23,r20
    1900:	9839883a 	mov	fp,r19
    1904:	05400404 	movi	r21,16
    1908:	1827883a 	mov	r19,r3
    190c:	5029883a 	mov	r20,r10
    1910:	9007883a 	mov	r3,r18
    1914:	b025883a 	mov	r18,r22
    1918:	682d883a 	mov	r22,r13
    191c:	00000406 	br	1930 <___vfprintf_internal_r+0x1484>
    1920:	18c00204 	addi	r3,r3,8
    1924:	843ffc04 	addi	r16,r16,-16
    1928:	81400448 	cmpgei	r5,r16,17
    192c:	2801ff26 	beq	r5,zero,212c <___vfprintf_internal_r+0x1c80>
    1930:	10800044 	addi	r2,r2,1
    1934:	21000404 	addi	r4,r4,16
    1938:	1c800015 	stw	r18,0(r3)
    193c:	1d400115 	stw	r21,4(r3)
    1940:	d9001f15 	stw	r4,124(sp)
    1944:	d8801e15 	stw	r2,120(sp)
    1948:	11400208 	cmpgei	r5,r2,8
    194c:	283ff426 	beq	r5,zero,1920 <___vfprintf_internal_r+0x1474>
    1950:	d9400417 	ldw	r5,16(sp)
    1954:	d9000517 	ldw	r4,20(sp)
    1958:	d9801d04 	addi	r6,sp,116
    195c:	0007edc0 	call	7edc <__sprint_r>
    1960:	103bde1e 	bne	r2,zero,8dc <___vfprintf_internal_r+0x430>
    1964:	d9001f17 	ldw	r4,124(sp)
    1968:	d8801e17 	ldw	r2,120(sp)
    196c:	8807883a 	mov	r3,r17
    1970:	003fec06 	br	1924 <___vfprintf_internal_r+0x1478>
    1974:	d9400417 	ldw	r5,16(sp)
    1978:	d9000517 	ldw	r4,20(sp)
    197c:	d9801d04 	addi	r6,sp,116
    1980:	db401315 	stw	r13,76(sp)
    1984:	da801115 	stw	r10,68(sp)
    1988:	d8c01015 	stw	r3,64(sp)
    198c:	dac00f15 	stw	r11,60(sp)
    1990:	0007edc0 	call	7edc <__sprint_r>
    1994:	103bd11e 	bne	r2,zero,8dc <___vfprintf_internal_r+0x430>
    1998:	dd801f17 	ldw	r22,124(sp)
    199c:	db401317 	ldw	r13,76(sp)
    19a0:	da801117 	ldw	r10,68(sp)
    19a4:	d8c01017 	ldw	r3,64(sp)
    19a8:	dac00f17 	ldw	r11,60(sp)
    19ac:	8821883a 	mov	r16,r17
    19b0:	003bae06 	br	86c <___vfprintf_internal_r+0x3c0>
    19b4:	d9400417 	ldw	r5,16(sp)
    19b8:	d9000517 	ldw	r4,20(sp)
    19bc:	d9801d04 	addi	r6,sp,116
    19c0:	db401015 	stw	r13,64(sp)
    19c4:	da800f15 	stw	r10,60(sp)
    19c8:	d8c00815 	stw	r3,32(sp)
    19cc:	0007edc0 	call	7edc <__sprint_r>
    19d0:	103bc21e 	bne	r2,zero,8dc <___vfprintf_internal_r+0x430>
    19d4:	d9001f17 	ldw	r4,124(sp)
    19d8:	db401017 	ldw	r13,64(sp)
    19dc:	da800f17 	ldw	r10,60(sp)
    19e0:	d8c00817 	ldw	r3,32(sp)
    19e4:	8821883a 	mov	r16,r17
    19e8:	003bac06 	br	89c <___vfprintf_internal_r+0x3f0>
    19ec:	63000414 	ori	r12,r12,16
    19f0:	003afe06 	br	5ec <___vfprintf_internal_r+0x140>
    19f4:	a2c00007 	ldb	r11,0(r20)
    19f8:	d8800715 	stw	r2,28(sp)
    19fc:	003afb06 	br	5ec <___vfprintf_internal_r+0x140>
    1a00:	882b883a 	mov	r21,r17
    1a04:	003c3206 	br	ad0 <___vfprintf_internal_r+0x624>
    1a08:	18800017 	ldw	r2,0(r3)
    1a0c:	d8800a15 	stw	r2,40(sp)
    1a10:	18800117 	ldw	r2,4(r3)
    1a14:	d8800b15 	stw	r2,44(sp)
    1a18:	003c9506 	br	c70 <___vfprintf_internal_r+0x7c4>
    1a1c:	6080040c 	andi	r2,r12,16
    1a20:	1000941e 	bne	r2,zero,1c74 <___vfprintf_internal_r+0x17c8>
    1a24:	6300100c 	andi	r12,r12,64
    1a28:	60009226 	beq	r12,zero,1c74 <___vfprintf_internal_r+0x17c8>
    1a2c:	d8800717 	ldw	r2,28(sp)
    1a30:	d8c00617 	ldw	r3,24(sp)
    1a34:	10800017 	ldw	r2,0(r2)
    1a38:	10c0000d 	sth	r3,0(r2)
    1a3c:	003d7306 	br	100c <___vfprintf_internal_r+0xb60>
    1a40:	2025883a 	mov	r18,r4
    1a44:	04bf2c16 	blt	zero,r18,16f8 <___vfprintf_internal_r+0x124c>
    1a48:	003f3506 	br	1720 <___vfprintf_internal_r+0x1274>
    1a4c:	1880004c 	andi	r2,r3,1
    1a50:	103f3a1e 	bne	r2,zero,173c <___vfprintf_internal_r+0x1290>
    1a54:	d8800817 	ldw	r2,32(sp)
    1a58:	24a5c83a 	sub	r18,r4,r18
    1a5c:	20afc83a 	sub	r23,r4,r2
    1a60:	b009883a 	mov	r4,r22
    1a64:	95ff540e 	bge	r18,r23,17b8 <___vfprintf_internal_r+0x130c>
    1a68:	902f883a 	mov	r23,r18
    1a6c:	003f5206 	br	17b8 <___vfprintf_internal_r+0x130c>
    1a70:	0025883a 	mov	r18,zero
    1a74:	003f2b06 	br	1724 <___vfprintf_internal_r+0x1278>
    1a78:	d9400417 	ldw	r5,16(sp)
    1a7c:	d9000517 	ldw	r4,20(sp)
    1a80:	d9801d04 	addi	r6,sp,116
    1a84:	db401015 	stw	r13,64(sp)
    1a88:	da800f15 	stw	r10,60(sp)
    1a8c:	d8c00815 	stw	r3,32(sp)
    1a90:	0007edc0 	call	7edc <__sprint_r>
    1a94:	103b911e 	bne	r2,zero,8dc <___vfprintf_internal_r+0x430>
    1a98:	d9001f17 	ldw	r4,124(sp)
    1a9c:	db401017 	ldw	r13,64(sp)
    1aa0:	da800f17 	ldw	r10,60(sp)
    1aa4:	d8c00817 	ldw	r3,32(sp)
    1aa8:	8821883a 	mov	r16,r17
    1aac:	003d8906 	br	10d4 <___vfprintf_internal_r+0xc28>
    1ab0:	00800074 	movhi	r2,1
    1ab4:	10816c04 	addi	r2,r2,1456
    1ab8:	d8800e15 	stw	r2,56(sp)
    1abc:	6080080c 	andi	r2,r12,32
    1ac0:	10007326 	beq	r2,zero,1c90 <___vfprintf_internal_r+0x17e4>
    1ac4:	d8800717 	ldw	r2,28(sp)
    1ac8:	15800017 	ldw	r22,0(r2)
    1acc:	17000117 	ldw	fp,4(r2)
    1ad0:	10800204 	addi	r2,r2,8
    1ad4:	d8800715 	stw	r2,28(sp)
    1ad8:	6080004c 	andi	r2,r12,1
    1adc:	10006a26 	beq	r2,zero,1c88 <___vfprintf_internal_r+0x17dc>
    1ae0:	b704b03a 	or	r2,r22,fp
    1ae4:	10006826 	beq	r2,zero,1c88 <___vfprintf_internal_r+0x17dc>
    1ae8:	00800c04 	movi	r2,48
    1aec:	d8801685 	stb	r2,90(sp)
    1af0:	dac016c5 	stb	r11,91(sp)
    1af4:	63000094 	ori	r12,r12,2
    1af8:	00800084 	movi	r2,2
    1afc:	003bd106 	br	a44 <___vfprintf_internal_r+0x598>
    1b00:	908001f0 	cmpltui	r2,r18,7
    1b04:	9039883a 	mov	fp,r18
    1b08:	1001d026 	beq	r2,zero,224c <___vfprintf_internal_r+0x1da0>
    1b0c:	05400074 	movhi	r21,1
    1b10:	e01b883a 	mov	r13,fp
    1b14:	dd800715 	stw	r22,28(sp)
    1b18:	ad417604 	addi	r21,r21,1496
    1b1c:	003b2906 	br	7c4 <___vfprintf_internal_r+0x318>
    1b20:	00800074 	movhi	r2,1
    1b24:	10817104 	addi	r2,r2,1476
    1b28:	d8800e15 	stw	r2,56(sp)
    1b2c:	003fe306 	br	1abc <___vfprintf_internal_r+0x1610>
    1b30:	b009883a 	mov	r4,r22
    1b34:	91400450 	cmplti	r5,r18,17
    1b38:	05800074 	movhi	r22,1
    1b3c:	d8801e17 	ldw	r2,120(sp)
    1b40:	b5817904 	addi	r22,r22,1508
    1b44:	28019f1e 	bne	r5,zero,21c4 <___vfprintf_internal_r+0x1d18>
    1b48:	9039883a 	mov	fp,r18
    1b4c:	d8c00f15 	stw	r3,60(sp)
    1b50:	05c00404 	movi	r23,16
    1b54:	8007883a 	mov	r3,r16
    1b58:	5025883a 	mov	r18,r10
    1b5c:	b021883a 	mov	r16,r22
    1b60:	982d883a 	mov	r22,r19
    1b64:	6827883a 	mov	r19,r13
    1b68:	00000406 	br	1b7c <___vfprintf_internal_r+0x16d0>
    1b6c:	18c00204 	addi	r3,r3,8
    1b70:	e73ffc04 	addi	fp,fp,-16
    1b74:	e1400448 	cmpgei	r5,fp,17
    1b78:	28018b26 	beq	r5,zero,21a8 <___vfprintf_internal_r+0x1cfc>
    1b7c:	10800044 	addi	r2,r2,1
    1b80:	21000404 	addi	r4,r4,16
    1b84:	1c000015 	stw	r16,0(r3)
    1b88:	1dc00115 	stw	r23,4(r3)
    1b8c:	d9001f15 	stw	r4,124(sp)
    1b90:	d8801e15 	stw	r2,120(sp)
    1b94:	11400208 	cmpgei	r5,r2,8
    1b98:	283ff426 	beq	r5,zero,1b6c <___vfprintf_internal_r+0x16c0>
    1b9c:	d9400417 	ldw	r5,16(sp)
    1ba0:	d9000517 	ldw	r4,20(sp)
    1ba4:	d9801d04 	addi	r6,sp,116
    1ba8:	0007edc0 	call	7edc <__sprint_r>
    1bac:	103b4b1e 	bne	r2,zero,8dc <___vfprintf_internal_r+0x430>
    1bb0:	d9001f17 	ldw	r4,124(sp)
    1bb4:	d8801e17 	ldw	r2,120(sp)
    1bb8:	8807883a 	mov	r3,r17
    1bbc:	003fec06 	br	1b70 <___vfprintf_internal_r+0x16c4>
    1bc0:	8009883a 	mov	r4,r16
    1bc4:	b007883a 	mov	r3,r22
    1bc8:	9805883a 	mov	r2,r19
    1bcc:	a02d883a 	mov	r22,r20
    1bd0:	e027883a 	mov	r19,fp
    1bd4:	9029883a 	mov	r20,r18
    1bd8:	dac00815 	stw	r11,32(sp)
    1bdc:	db000f15 	stw	r12,60(sp)
    1be0:	da801015 	stw	r10,64(sp)
    1be4:	8821883a 	mov	r16,r17
    1be8:	1039883a 	mov	fp,r2
    1bec:	1825883a 	mov	r18,r3
    1bf0:	202b883a 	mov	r21,r4
    1bf4:	9009883a 	mov	r4,r18
    1bf8:	980b883a 	mov	r5,r19
    1bfc:	01800284 	movi	r6,10
    1c00:	000f883a 	mov	r7,zero
    1c04:	000a9800 	call	a980 <__umoddi3>
    1c08:	10800c04 	addi	r2,r2,48
    1c0c:	9009883a 	mov	r4,r18
    1c10:	980b883a 	mov	r5,r19
    1c14:	01800284 	movi	r6,10
    1c18:	000f883a 	mov	r7,zero
    1c1c:	80bfffc5 	stb	r2,-1(r16)
    1c20:	000a3a80 	call	a3a8 <__udivdi3>
    1c24:	980d883a 	mov	r6,r19
    1c28:	900f883a 	mov	r7,r18
    1c2c:	843fffc4 	addi	r16,r16,-1
    1c30:	1025883a 	mov	r18,r2
    1c34:	1827883a 	mov	r19,r3
    1c38:	303fee1e 	bne	r6,zero,1bf4 <___vfprintf_internal_r+0x1748>
    1c3c:	39c002a8 	cmpgeui	r7,r7,10
    1c40:	383fec1e 	bne	r7,zero,1bf4 <___vfprintf_internal_r+0x1748>
    1c44:	db000f17 	ldw	r12,60(sp)
    1c48:	a805883a 	mov	r2,r21
    1c4c:	802b883a 	mov	r21,r16
    1c50:	a025883a 	mov	r18,r20
    1c54:	e027883a 	mov	r19,fp
    1c58:	dac00817 	ldw	r11,32(sp)
    1c5c:	da801017 	ldw	r10,64(sp)
    1c60:	b029883a 	mov	r20,r22
    1c64:	1021883a 	mov	r16,r2
    1c68:	8d79c83a 	sub	fp,r17,r21
    1c6c:	6007883a 	mov	r3,r12
    1c70:	003b9706 	br	ad0 <___vfprintf_internal_r+0x624>
    1c74:	d8800717 	ldw	r2,28(sp)
    1c78:	d8c00617 	ldw	r3,24(sp)
    1c7c:	10800017 	ldw	r2,0(r2)
    1c80:	10c00015 	stw	r3,0(r2)
    1c84:	003ce106 	br	100c <___vfprintf_internal_r+0xb60>
    1c88:	00800084 	movi	r2,2
    1c8c:	003b6d06 	br	a44 <___vfprintf_internal_r+0x598>
    1c90:	d8c00717 	ldw	r3,28(sp)
    1c94:	6080040c 	andi	r2,r12,16
    1c98:	1d800017 	ldw	r22,0(r3)
    1c9c:	18c00104 	addi	r3,r3,4
    1ca0:	d8c00715 	stw	r3,28(sp)
    1ca4:	1000051e 	bne	r2,zero,1cbc <___vfprintf_internal_r+0x1810>
    1ca8:	6080100c 	andi	r2,r12,64
    1cac:	10000326 	beq	r2,zero,1cbc <___vfprintf_internal_r+0x1810>
    1cb0:	b5bfffcc 	andi	r22,r22,65535
    1cb4:	0039883a 	mov	fp,zero
    1cb8:	003f8706 	br	1ad8 <___vfprintf_internal_r+0x162c>
    1cbc:	0039883a 	mov	fp,zero
    1cc0:	003f8506 	br	1ad8 <___vfprintf_internal_r+0x162c>
    1cc4:	d9400417 	ldw	r5,16(sp)
    1cc8:	d9000517 	ldw	r4,20(sp)
    1ccc:	d9801d04 	addi	r6,sp,116
    1cd0:	db401015 	stw	r13,64(sp)
    1cd4:	da800f15 	stw	r10,60(sp)
    1cd8:	d8c00815 	stw	r3,32(sp)
    1cdc:	0007edc0 	call	7edc <__sprint_r>
    1ce0:	103afe1e 	bne	r2,zero,8dc <___vfprintf_internal_r+0x430>
    1ce4:	dd801f17 	ldw	r22,124(sp)
    1ce8:	df001e17 	ldw	fp,120(sp)
    1cec:	db401017 	ldw	r13,64(sp)
    1cf0:	da800f17 	ldw	r10,60(sp)
    1cf4:	d8c00817 	ldw	r3,32(sp)
    1cf8:	8825883a 	mov	r18,r17
    1cfc:	003dc006 	br	1400 <___vfprintf_internal_r+0xf54>
    1d00:	d9400417 	ldw	r5,16(sp)
    1d04:	d9000517 	ldw	r4,20(sp)
    1d08:	d9801d04 	addi	r6,sp,116
    1d0c:	db401015 	stw	r13,64(sp)
    1d10:	da800f15 	stw	r10,60(sp)
    1d14:	d8c00815 	stw	r3,32(sp)
    1d18:	0007edc0 	call	7edc <__sprint_r>
    1d1c:	103aef1e 	bne	r2,zero,8dc <___vfprintf_internal_r+0x430>
    1d20:	ddc01f17 	ldw	r23,124(sp)
    1d24:	df001e17 	ldw	fp,120(sp)
    1d28:	db401017 	ldw	r13,64(sp)
    1d2c:	da800f17 	ldw	r10,60(sp)
    1d30:	d8c00817 	ldw	r3,32(sp)
    1d34:	8825883a 	mov	r18,r17
    1d38:	003dbc06 	br	142c <___vfprintf_internal_r+0xf80>
    1d3c:	d9400417 	ldw	r5,16(sp)
    1d40:	d9000517 	ldw	r4,20(sp)
    1d44:	d9801d04 	addi	r6,sp,116
    1d48:	db401515 	stw	r13,84(sp)
    1d4c:	da801415 	stw	r10,80(sp)
    1d50:	d8c01315 	stw	r3,76(sp)
    1d54:	dac01115 	stw	r11,68(sp)
    1d58:	db001015 	stw	r12,64(sp)
    1d5c:	db800f15 	stw	r14,60(sp)
    1d60:	0007edc0 	call	7edc <__sprint_r>
    1d64:	103add1e 	bne	r2,zero,8dc <___vfprintf_internal_r+0x430>
    1d68:	db401517 	ldw	r13,84(sp)
    1d6c:	da801417 	ldw	r10,80(sp)
    1d70:	d8c01317 	ldw	r3,76(sp)
    1d74:	dac01117 	ldw	r11,68(sp)
    1d78:	db001017 	ldw	r12,64(sp)
    1d7c:	db800f17 	ldw	r14,60(sp)
    1d80:	8821883a 	mov	r16,r17
    1d84:	003a9906 	br	7ec <___vfprintf_internal_r+0x340>
    1d88:	d8801e17 	ldw	r2,120(sp)
    1d8c:	01400074 	movhi	r5,1
    1d90:	29417804 	addi	r5,r5,1504
    1d94:	10800044 	addi	r2,r2,1
    1d98:	b1000044 	addi	r4,r22,1
    1d9c:	81400015 	stw	r5,0(r16)
    1da0:	01400044 	movi	r5,1
    1da4:	d8801e15 	stw	r2,120(sp)
    1da8:	81400115 	stw	r5,4(r16)
    1dac:	d9001f15 	stw	r4,124(sp)
    1db0:	10800208 	cmpgei	r2,r2,8
    1db4:	1001121e 	bne	r2,zero,2200 <___vfprintf_internal_r+0x1d54>
    1db8:	84000204 	addi	r16,r16,8
    1dbc:	9000ac1e 	bne	r18,zero,2070 <___vfprintf_internal_r+0x1bc4>
    1dc0:	d9400917 	ldw	r5,36(sp)
    1dc4:	1880004c 	andi	r2,r3,1
    1dc8:	1144b03a 	or	r2,r2,r5
    1dcc:	103ab326 	beq	r2,zero,89c <___vfprintf_internal_r+0x3f0>
    1dd0:	d8800d17 	ldw	r2,52(sp)
    1dd4:	d9400c17 	ldw	r5,48(sp)
    1dd8:	80800015 	stw	r2,0(r16)
    1ddc:	d8801e17 	ldw	r2,120(sp)
    1de0:	2909883a 	add	r4,r5,r4
    1de4:	81400115 	stw	r5,4(r16)
    1de8:	10800044 	addi	r2,r2,1
    1dec:	d9001f15 	stw	r4,124(sp)
    1df0:	d8801e15 	stw	r2,120(sp)
    1df4:	11400208 	cmpgei	r5,r2,8
    1df8:	28011b1e 	bne	r5,zero,2268 <___vfprintf_internal_r+0x1dbc>
    1dfc:	84000204 	addi	r16,r16,8
    1e00:	d9400917 	ldw	r5,36(sp)
    1e04:	10800044 	addi	r2,r2,1
    1e08:	d8801e15 	stw	r2,120(sp)
    1e0c:	2909883a 	add	r4,r5,r4
    1e10:	85400015 	stw	r21,0(r16)
    1e14:	81400115 	stw	r5,4(r16)
    1e18:	d9001f15 	stw	r4,124(sp)
    1e1c:	10800208 	cmpgei	r2,r2,8
    1e20:	103a9d26 	beq	r2,zero,898 <___vfprintf_internal_r+0x3ec>
    1e24:	003df906 	br	160c <___vfprintf_internal_r+0x1160>
    1e28:	d9000a17 	ldw	r4,40(sp)
    1e2c:	d9400b17 	ldw	r5,44(sp)
    1e30:	da800f15 	stw	r10,60(sp)
    1e34:	200d883a 	mov	r6,r4
    1e38:	280f883a 	mov	r7,r5
    1e3c:	db000815 	stw	r12,32(sp)
    1e40:	dac00715 	stw	r11,28(sp)
    1e44:	000d6d40 	call	d6d4 <__unorddf2>
    1e48:	dac00717 	ldw	r11,28(sp)
    1e4c:	db000817 	ldw	r12,32(sp)
    1e50:	da800f17 	ldw	r10,60(sp)
    1e54:	10026c1e 	bne	r2,zero,2808 <___vfprintf_internal_r+0x235c>
    1e58:	057ff7c4 	movi	r21,-33
    1e5c:	90bfffe0 	cmpeqi	r2,r18,-1
    1e60:	5d6e703a 	and	r23,r11,r21
    1e64:	1001f21e 	bne	r2,zero,2630 <___vfprintf_internal_r+0x2184>
    1e68:	b88011d8 	cmpnei	r2,r23,71
    1e6c:	1001de26 	beq	r2,zero,25e8 <___vfprintf_internal_r+0x213c>
    1e70:	d8800b17 	ldw	r2,44(sp)
    1e74:	60c04014 	ori	r3,r12,256
    1e78:	1000f016 	blt	r2,zero,223c <___vfprintf_internal_r+0x1d90>
    1e7c:	df000b17 	ldw	fp,44(sp)
    1e80:	d8000705 	stb	zero,28(sp)
    1e84:	588019a0 	cmpeqi	r2,r11,102
    1e88:	d8800f15 	stw	r2,60(sp)
    1e8c:	1001911e 	bne	r2,zero,24d4 <___vfprintf_internal_r+0x2028>
    1e90:	b8801158 	cmpnei	r2,r23,69
    1e94:	10010526 	beq	r2,zero,22ac <___vfprintf_internal_r+0x1e00>
    1e98:	d8801b04 	addi	r2,sp,108
    1e9c:	d9000517 	ldw	r4,20(sp)
    1ea0:	d8800315 	stw	r2,12(sp)
    1ea4:	d9400a17 	ldw	r5,40(sp)
    1ea8:	d8801804 	addi	r2,sp,96
    1eac:	d8800215 	stw	r2,8(sp)
    1eb0:	d8801704 	addi	r2,sp,92
    1eb4:	d8800115 	stw	r2,4(sp)
    1eb8:	dc800015 	stw	r18,0(sp)
    1ebc:	01c00084 	movi	r7,2
    1ec0:	e00d883a 	mov	r6,fp
    1ec4:	da801115 	stw	r10,68(sp)
    1ec8:	d8c01015 	stw	r3,64(sp)
    1ecc:	db000915 	stw	r12,36(sp)
    1ed0:	dac00815 	stw	r11,32(sp)
    1ed4:	0002da00 	call	2da0 <_dtoa_r>
    1ed8:	dac00817 	ldw	r11,32(sp)
    1edc:	db000917 	ldw	r12,36(sp)
    1ee0:	d8c01017 	ldw	r3,64(sp)
    1ee4:	590019e0 	cmpeqi	r4,r11,103
    1ee8:	da801117 	ldw	r10,68(sp)
    1eec:	102b883a 	mov	r21,r2
    1ef0:	20011a26 	beq	r4,zero,235c <___vfprintf_internal_r+0x1eb0>
    1ef4:	6080004c 	andi	r2,r12,1
    1ef8:	10011a26 	beq	r2,zero,2364 <___vfprintf_internal_r+0x1eb8>
    1efc:	ac9b883a 	add	r13,r21,r18
    1f00:	d9000a17 	ldw	r4,40(sp)
    1f04:	000d883a 	mov	r6,zero
    1f08:	000f883a 	mov	r7,zero
    1f0c:	e00b883a 	mov	r5,fp
    1f10:	db401315 	stw	r13,76(sp)
    1f14:	da801115 	stw	r10,68(sp)
    1f18:	d8c01015 	stw	r3,64(sp)
    1f1c:	db000915 	stw	r12,36(sp)
    1f20:	dac00815 	stw	r11,32(sp)
    1f24:	000c2a80 	call	c2a8 <__eqdf2>
    1f28:	dac00817 	ldw	r11,32(sp)
    1f2c:	db000917 	ldw	r12,36(sp)
    1f30:	d8c01017 	ldw	r3,64(sp)
    1f34:	da801117 	ldw	r10,68(sp)
    1f38:	db401317 	ldw	r13,76(sp)
    1f3c:	10025826 	beq	r2,zero,28a0 <___vfprintf_internal_r+0x23f4>
    1f40:	d8801b17 	ldw	r2,108(sp)
    1f44:	1340062e 	bgeu	r2,r13,1f60 <___vfprintf_internal_r+0x1ab4>
    1f48:	01400c04 	movi	r5,48
    1f4c:	11000044 	addi	r4,r2,1
    1f50:	d9001b15 	stw	r4,108(sp)
    1f54:	11400005 	stb	r5,0(r2)
    1f58:	d8801b17 	ldw	r2,108(sp)
    1f5c:	137ffb36 	bltu	r2,r13,1f4c <___vfprintf_internal_r+0x1aa0>
    1f60:	d9c01717 	ldw	r7,92(sp)
    1f64:	1545c83a 	sub	r2,r2,r21
    1f68:	b90011d8 	cmpnei	r4,r23,71
    1f6c:	d8800915 	stw	r2,36(sp)
    1f70:	d9c00815 	stw	r7,32(sp)
    1f74:	2000ff26 	beq	r4,zero,2374 <___vfprintf_internal_r+0x1ec8>
    1f78:	d8800f17 	ldw	r2,60(sp)
    1f7c:	10024226 	beq	r2,zero,2888 <___vfprintf_internal_r+0x23dc>
    1f80:	d9000817 	ldw	r4,32(sp)
    1f84:	6080004c 	andi	r2,r12,1
    1f88:	1484b03a 	or	r2,r2,r18
    1f8c:	0102620e 	bge	zero,r4,2918 <___vfprintf_internal_r+0x246c>
    1f90:	1002471e 	bne	r2,zero,28b0 <___vfprintf_internal_r+0x2404>
    1f94:	df000817 	ldw	fp,32(sp)
    1f98:	e01b883a 	mov	r13,fp
    1f9c:	02c01984 	movi	r11,102
    1fa0:	ddc00707 	ldb	r23,28(sp)
    1fa4:	b8014726 	beq	r23,zero,24c4 <___vfprintf_internal_r+0x2018>
    1fa8:	00800b44 	movi	r2,45
    1fac:	d8801645 	stb	r2,89(sp)
    1fb0:	dd800715 	stw	r22,28(sp)
    1fb4:	0025883a 	mov	r18,zero
    1fb8:	003acd06 	br	af0 <___vfprintf_internal_r+0x644>
    1fbc:	d9400417 	ldw	r5,16(sp)
    1fc0:	d9000517 	ldw	r4,20(sp)
    1fc4:	d9801d04 	addi	r6,sp,116
    1fc8:	db401015 	stw	r13,64(sp)
    1fcc:	da800f15 	stw	r10,60(sp)
    1fd0:	d8c00815 	stw	r3,32(sp)
    1fd4:	0007edc0 	call	7edc <__sprint_r>
    1fd8:	103a401e 	bne	r2,zero,8dc <___vfprintf_internal_r+0x430>
    1fdc:	dd801f17 	ldw	r22,124(sp)
    1fe0:	db401017 	ldw	r13,64(sp)
    1fe4:	da800f17 	ldw	r10,60(sp)
    1fe8:	d8c00817 	ldw	r3,32(sp)
    1fec:	8821883a 	mov	r16,r17
    1ff0:	003c2506 	br	1088 <___vfprintf_internal_r+0xbdc>
    1ff4:	d9400417 	ldw	r5,16(sp)
    1ff8:	d9000517 	ldw	r4,20(sp)
    1ffc:	d9801d04 	addi	r6,sp,116
    2000:	db401015 	stw	r13,64(sp)
    2004:	da800f15 	stw	r10,60(sp)
    2008:	d8c00815 	stw	r3,32(sp)
    200c:	0007edc0 	call	7edc <__sprint_r>
    2010:	103a321e 	bne	r2,zero,8dc <___vfprintf_internal_r+0x430>
    2014:	ddc01f17 	ldw	r23,124(sp)
    2018:	df001e17 	ldw	fp,120(sp)
    201c:	d8c00817 	ldw	r3,32(sp)
    2020:	da800f17 	ldw	r10,60(sp)
    2024:	db401017 	ldw	r13,64(sp)
    2028:	8825883a 	mov	r18,r17
    202c:	003d1706 	br	148c <___vfprintf_internal_r+0xfe0>
    2030:	d9400417 	ldw	r5,16(sp)
    2034:	d9000517 	ldw	r4,20(sp)
    2038:	d9801d04 	addi	r6,sp,116
    203c:	db401315 	stw	r13,76(sp)
    2040:	da801115 	stw	r10,68(sp)
    2044:	d8c01015 	stw	r3,64(sp)
    2048:	dac00f15 	stw	r11,60(sp)
    204c:	0007edc0 	call	7edc <__sprint_r>
    2050:	103a221e 	bne	r2,zero,8dc <___vfprintf_internal_r+0x430>
    2054:	dd801f17 	ldw	r22,124(sp)
    2058:	db401317 	ldw	r13,76(sp)
    205c:	da801117 	ldw	r10,68(sp)
    2060:	d8c01017 	ldw	r3,64(sp)
    2064:	dac00f17 	ldw	r11,60(sp)
    2068:	8821883a 	mov	r16,r17
    206c:	0039fd06 	br	864 <___vfprintf_internal_r+0x3b8>
    2070:	d8800d17 	ldw	r2,52(sp)
    2074:	d9400c17 	ldw	r5,48(sp)
    2078:	80800015 	stw	r2,0(r16)
    207c:	d8801e17 	ldw	r2,120(sp)
    2080:	2909883a 	add	r4,r5,r4
    2084:	81400115 	stw	r5,4(r16)
    2088:	10800044 	addi	r2,r2,1
    208c:	d9001f15 	stw	r4,124(sp)
    2090:	d8801e15 	stw	r2,120(sp)
    2094:	11400208 	cmpgei	r5,r2,8
    2098:	2800731e 	bne	r5,zero,2268 <___vfprintf_internal_r+0x1dbc>
    209c:	84000204 	addi	r16,r16,8
    20a0:	903f570e 	bge	r18,zero,1e00 <___vfprintf_internal_r+0x1954>
    20a4:	05800074 	movhi	r22,1
    20a8:	917ffc08 	cmpgei	r5,r18,-16
    20ac:	b5817904 	addi	r22,r22,1508
    20b0:	04a5c83a 	sub	r18,zero,r18
    20b4:	2801a91e 	bne	r5,zero,275c <___vfprintf_internal_r+0x22b0>
    20b8:	1839883a 	mov	fp,r3
    20bc:	05c00404 	movi	r23,16
    20c0:	8007883a 	mov	r3,r16
    20c4:	da800815 	stw	r10,32(sp)
    20c8:	b021883a 	mov	r16,r22
    20cc:	902d883a 	mov	r22,r18
    20d0:	6825883a 	mov	r18,r13
    20d4:	00000406 	br	20e8 <___vfprintf_internal_r+0x1c3c>
    20d8:	18c00204 	addi	r3,r3,8
    20dc:	b5bffc04 	addi	r22,r22,-16
    20e0:	b1400448 	cmpgei	r5,r22,17
    20e4:	28019726 	beq	r5,zero,2744 <___vfprintf_internal_r+0x2298>
    20e8:	10800044 	addi	r2,r2,1
    20ec:	21000404 	addi	r4,r4,16
    20f0:	1c000015 	stw	r16,0(r3)
    20f4:	1dc00115 	stw	r23,4(r3)
    20f8:	d9001f15 	stw	r4,124(sp)
    20fc:	d8801e15 	stw	r2,120(sp)
    2100:	11400208 	cmpgei	r5,r2,8
    2104:	283ff426 	beq	r5,zero,20d8 <___vfprintf_internal_r+0x1c2c>
    2108:	d9400417 	ldw	r5,16(sp)
    210c:	d9000517 	ldw	r4,20(sp)
    2110:	d9801d04 	addi	r6,sp,116
    2114:	0007edc0 	call	7edc <__sprint_r>
    2118:	1039f01e 	bne	r2,zero,8dc <___vfprintf_internal_r+0x430>
    211c:	d9001f17 	ldw	r4,124(sp)
    2120:	d8801e17 	ldw	r2,120(sp)
    2124:	8807883a 	mov	r3,r17
    2128:	003fec06 	br	20dc <___vfprintf_internal_r+0x1c30>
    212c:	a015883a 	mov	r10,r20
    2130:	b01b883a 	mov	r13,r22
    2134:	b829883a 	mov	r20,r23
    2138:	902d883a 	mov	r22,r18
    213c:	202f883a 	mov	r23,r4
    2140:	1825883a 	mov	r18,r3
    2144:	9807883a 	mov	r3,r19
    2148:	e027883a 	mov	r19,fp
    214c:	1039883a 	mov	fp,r2
    2150:	e7000044 	addi	fp,fp,1
    2154:	bc2f883a 	add	r23,r23,r16
    2158:	95800015 	stw	r22,0(r18)
    215c:	003cc506 	br	1474 <___vfprintf_internal_r+0xfc8>
    2160:	a809883a 	mov	r4,r21
    2164:	da801015 	stw	r10,64(sp)
    2168:	db000f15 	stw	r12,60(sp)
    216c:	dac00815 	stw	r11,32(sp)
    2170:	00004140 	call	414 <strlen>
    2174:	dac00817 	ldw	r11,32(sp)
    2178:	db000f17 	ldw	r12,60(sp)
    217c:	da801017 	ldw	r10,64(sp)
    2180:	1039883a 	mov	fp,r2
    2184:	101b883a 	mov	r13,r2
    2188:	dd800715 	stw	r22,28(sp)
    218c:	00398d06 	br	7c4 <___vfprintf_internal_r+0x318>
    2190:	05400074 	movhi	r21,1
    2194:	ad416804 	addi	r21,r21,1440
    2198:	003adf06 	br	d18 <___vfprintf_internal_r+0x86c>
    219c:	05800074 	movhi	r22,1
    21a0:	b5817904 	addi	r22,r22,1508
    21a4:	003c6006 	br	1328 <___vfprintf_internal_r+0xe7c>
    21a8:	981b883a 	mov	r13,r19
    21ac:	b027883a 	mov	r19,r22
    21b0:	802d883a 	mov	r22,r16
    21b4:	1821883a 	mov	r16,r3
    21b8:	d8c00f17 	ldw	r3,60(sp)
    21bc:	9015883a 	mov	r10,r18
    21c0:	e025883a 	mov	r18,fp
    21c4:	10800044 	addi	r2,r2,1
    21c8:	9109883a 	add	r4,r18,r4
    21cc:	d8801e15 	stw	r2,120(sp)
    21d0:	85800015 	stw	r22,0(r16)
    21d4:	84800115 	stw	r18,4(r16)
    21d8:	d9001f15 	stw	r4,124(sp)
    21dc:	10800208 	cmpgei	r2,r2,8
    21e0:	1000501e 	bne	r2,zero,2324 <___vfprintf_internal_r+0x1e78>
    21e4:	84000204 	addi	r16,r16,8
    21e8:	202d883a 	mov	r22,r4
    21ec:	003d5006 	br	1730 <___vfprintf_internal_r+0x1284>
    21f0:	00800b44 	movi	r2,45
    21f4:	d8801645 	stb	r2,89(sp)
    21f8:	05c00b44 	movi	r23,45
    21fc:	003ac206 	br	d08 <___vfprintf_internal_r+0x85c>
    2200:	d9400417 	ldw	r5,16(sp)
    2204:	d9000517 	ldw	r4,20(sp)
    2208:	d9801d04 	addi	r6,sp,116
    220c:	db401015 	stw	r13,64(sp)
    2210:	da800f15 	stw	r10,60(sp)
    2214:	d8c00815 	stw	r3,32(sp)
    2218:	0007edc0 	call	7edc <__sprint_r>
    221c:	1039af1e 	bne	r2,zero,8dc <___vfprintf_internal_r+0x430>
    2220:	dc801717 	ldw	r18,92(sp)
    2224:	d9001f17 	ldw	r4,124(sp)
    2228:	db401017 	ldw	r13,64(sp)
    222c:	da800f17 	ldw	r10,60(sp)
    2230:	d8c00817 	ldw	r3,32(sp)
    2234:	8821883a 	mov	r16,r17
    2238:	003ee006 	br	1dbc <___vfprintf_internal_r+0x1910>
    223c:	1720003c 	xorhi	fp,r2,32768
    2240:	00800b44 	movi	r2,45
    2244:	d8800705 	stb	r2,28(sp)
    2248:	003f0e06 	br	1e84 <___vfprintf_internal_r+0x19d8>
    224c:	07000184 	movi	fp,6
    2250:	003e2e06 	br	1b0c <___vfprintf_internal_r+0x1660>
    2254:	d9400417 	ldw	r5,16(sp)
    2258:	d9000517 	ldw	r4,20(sp)
    225c:	d9801d04 	addi	r6,sp,116
    2260:	0007edc0 	call	7edc <__sprint_r>
    2264:	00399d06 	br	8dc <___vfprintf_internal_r+0x430>
    2268:	d9400417 	ldw	r5,16(sp)
    226c:	d9000517 	ldw	r4,20(sp)
    2270:	d9801d04 	addi	r6,sp,116
    2274:	db401015 	stw	r13,64(sp)
    2278:	da800f15 	stw	r10,60(sp)
    227c:	d8c00815 	stw	r3,32(sp)
    2280:	0007edc0 	call	7edc <__sprint_r>
    2284:	1039951e 	bne	r2,zero,8dc <___vfprintf_internal_r+0x430>
    2288:	dc801717 	ldw	r18,92(sp)
    228c:	d9001f17 	ldw	r4,124(sp)
    2290:	d8801e17 	ldw	r2,120(sp)
    2294:	db401017 	ldw	r13,64(sp)
    2298:	da800f17 	ldw	r10,60(sp)
    229c:	d8c00817 	ldw	r3,32(sp)
    22a0:	8821883a 	mov	r16,r17
    22a4:	903ed60e 	bge	r18,zero,1e00 <___vfprintf_internal_r+0x1954>
    22a8:	003f7e06 	br	20a4 <___vfprintf_internal_r+0x1bf8>
    22ac:	d8801b04 	addi	r2,sp,108
    22b0:	d8800315 	stw	r2,12(sp)
    22b4:	d9400a17 	ldw	r5,40(sp)
    22b8:	d8801804 	addi	r2,sp,96
    22bc:	d9000517 	ldw	r4,20(sp)
    22c0:	d8c01115 	stw	r3,68(sp)
    22c4:	d8800215 	stw	r2,8(sp)
    22c8:	90c00044 	addi	r3,r18,1
    22cc:	d8801704 	addi	r2,sp,92
    22d0:	d8c00015 	stw	r3,0(sp)
    22d4:	d8800115 	stw	r2,4(sp)
    22d8:	01c00084 	movi	r7,2
    22dc:	e00d883a 	mov	r6,fp
    22e0:	da801315 	stw	r10,76(sp)
    22e4:	db001015 	stw	r12,64(sp)
    22e8:	dac00815 	stw	r11,32(sp)
    22ec:	d8c00915 	stw	r3,36(sp)
    22f0:	0002da00 	call	2da0 <_dtoa_r>
    22f4:	dac00817 	ldw	r11,32(sp)
    22f8:	db001017 	ldw	r12,64(sp)
    22fc:	d8c01117 	ldw	r3,68(sp)
    2300:	da801317 	ldw	r10,76(sp)
    2304:	102b883a 	mov	r21,r2
    2308:	588011d8 	cmpnei	r2,r11,71
    230c:	10014d1e 	bne	r2,zero,2844 <___vfprintf_internal_r+0x2398>
    2310:	6080004c 	andi	r2,r12,1
    2314:	10001326 	beq	r2,zero,2364 <___vfprintf_internal_r+0x1eb8>
    2318:	d8800917 	ldw	r2,36(sp)
    231c:	a89b883a 	add	r13,r21,r2
    2320:	003ef706 	br	1f00 <___vfprintf_internal_r+0x1a54>
    2324:	d9400417 	ldw	r5,16(sp)
    2328:	d9000517 	ldw	r4,20(sp)
    232c:	d9801d04 	addi	r6,sp,116
    2330:	db401115 	stw	r13,68(sp)
    2334:	da801015 	stw	r10,64(sp)
    2338:	d8c00f15 	stw	r3,60(sp)
    233c:	0007edc0 	call	7edc <__sprint_r>
    2340:	1039661e 	bne	r2,zero,8dc <___vfprintf_internal_r+0x430>
    2344:	dd801f17 	ldw	r22,124(sp)
    2348:	db401117 	ldw	r13,68(sp)
    234c:	da801017 	ldw	r10,64(sp)
    2350:	d8c00f17 	ldw	r3,60(sp)
    2354:	8821883a 	mov	r16,r17
    2358:	003cf506 	br	1730 <___vfprintf_internal_r+0x1284>
    235c:	dc800915 	stw	r18,36(sp)
    2360:	003fe906 	br	2308 <___vfprintf_internal_r+0x1e5c>
    2364:	d8801b17 	ldw	r2,108(sp)
    2368:	d9c01717 	ldw	r7,92(sp)
    236c:	1545c83a 	sub	r2,r2,r21
    2370:	d8800915 	stw	r2,36(sp)
    2374:	38bfff48 	cmpgei	r2,r7,-3
    2378:	d9c00815 	stw	r7,32(sp)
    237c:	1000bf1e 	bne	r2,zero,267c <___vfprintf_internal_r+0x21d0>
    2380:	5affff84 	addi	r11,r11,-2
    2384:	397fffc4 	addi	r5,r7,-1
    2388:	5805883a 	mov	r2,r11
    238c:	01000044 	movi	r4,1
    2390:	21efc83a 	sub	r23,r4,r7
    2394:	01000b44 	movi	r4,45
    2398:	21003fcc 	andi	r4,r4,255
    239c:	2008923a 	slli	r4,r4,8
    23a0:	10803fcc 	andi	r2,r2,255
    23a4:	d9401715 	stw	r5,92(sp)
    23a8:	1104b03a 	or	r2,r2,r4
    23ac:	d880190d 	sth	r2,100(sp)
    23b0:	b8800290 	cmplti	r2,r23,10
    23b4:	1000c61e 	bne	r2,zero,26d0 <___vfprintf_internal_r+0x2224>
    23b8:	df001cc4 	addi	fp,sp,115
    23bc:	9805883a 	mov	r2,r19
    23c0:	d8c01015 	stw	r3,64(sp)
    23c4:	a007883a 	mov	r3,r20
    23c8:	e027883a 	mov	r19,fp
    23cc:	8029883a 	mov	r20,r16
    23d0:	dac00815 	stw	r11,32(sp)
    23d4:	b821883a 	mov	r16,r23
    23d8:	db000f15 	stw	r12,60(sp)
    23dc:	da801115 	stw	r10,68(sp)
    23e0:	1039883a 	mov	fp,r2
    23e4:	182f883a 	mov	r23,r3
    23e8:	8009883a 	mov	r4,r16
    23ec:	01400284 	movi	r5,10
    23f0:	000af5c0 	call	af5c <__modsi3>
    23f4:	10800c04 	addi	r2,r2,48
    23f8:	8009883a 	mov	r4,r16
    23fc:	01400284 	movi	r5,10
    2400:	98bfffc5 	stb	r2,-1(r19)
    2404:	000aedc0 	call	aedc <__divsi3>
    2408:	81401908 	cmpgei	r5,r16,100
    240c:	9825883a 	mov	r18,r19
    2410:	1021883a 	mov	r16,r2
    2414:	9cffffc4 	addi	r19,r19,-1
    2418:	283ff31e 	bne	r5,zero,23e8 <___vfprintf_internal_r+0x1f3c>
    241c:	b809883a 	mov	r4,r23
    2420:	102f883a 	mov	r23,r2
    2424:	e005883a 	mov	r2,fp
    2428:	9839883a 	mov	fp,r19
    242c:	1027883a 	mov	r19,r2
    2430:	b8800c04 	addi	r2,r23,48
    2434:	e0bfffc5 	stb	r2,-1(fp)
    2438:	917fff84 	addi	r5,r18,-2
    243c:	d8801cc4 	addi	r2,sp,115
    2440:	a021883a 	mov	r16,r20
    2444:	dac00817 	ldw	r11,32(sp)
    2448:	db000f17 	ldw	r12,60(sp)
    244c:	d8c01017 	ldw	r3,64(sp)
    2450:	da801117 	ldw	r10,68(sp)
    2454:	2029883a 	mov	r20,r4
    2458:	28813d2e 	bgeu	r5,r2,2950 <___vfprintf_internal_r+0x24a4>
    245c:	d8801d44 	addi	r2,sp,117
    2460:	14a5c83a 	sub	r18,r2,r18
    2464:	d9001984 	addi	r4,sp,102
    2468:	900d883a 	mov	r6,r18
    246c:	00061100 	call	6110 <memcpy>
    2470:	d8801984 	addi	r2,sp,102
    2474:	1485883a 	add	r2,r2,r18
    2478:	d9001904 	addi	r4,sp,100
    247c:	dac00817 	ldw	r11,32(sp)
    2480:	db000f17 	ldw	r12,60(sp)
    2484:	d8c01017 	ldw	r3,64(sp)
    2488:	da801117 	ldw	r10,68(sp)
    248c:	1105c83a 	sub	r2,r2,r4
    2490:	d8801215 	stw	r2,72(sp)
    2494:	d9000917 	ldw	r4,36(sp)
    2498:	d9401217 	ldw	r5,72(sp)
    249c:	20800088 	cmpgei	r2,r4,2
    24a0:	2179883a 	add	fp,r4,r5
    24a4:	10009126 	beq	r2,zero,26ec <___vfprintf_internal_r+0x2240>
    24a8:	d8800c17 	ldw	r2,48(sp)
    24ac:	e0b9883a 	add	fp,fp,r2
    24b0:	e01b883a 	mov	r13,fp
    24b4:	e000010e 	bge	fp,zero,24bc <___vfprintf_internal_r+0x2010>
    24b8:	001b883a 	mov	r13,zero
    24bc:	d8000815 	stw	zero,32(sp)
    24c0:	003eb706 	br	1fa0 <___vfprintf_internal_r+0x1af4>
    24c4:	ddc01643 	ldbu	r23,89(sp)
    24c8:	dd800715 	stw	r22,28(sp)
    24cc:	0025883a 	mov	r18,zero
    24d0:	00398306 	br	ae0 <___vfprintf_internal_r+0x634>
    24d4:	d8801b04 	addi	r2,sp,108
    24d8:	d8800315 	stw	r2,12(sp)
    24dc:	d9400a17 	ldw	r5,40(sp)
    24e0:	d8801804 	addi	r2,sp,96
    24e4:	d9000517 	ldw	r4,20(sp)
    24e8:	d8800215 	stw	r2,8(sp)
    24ec:	d8801704 	addi	r2,sp,92
    24f0:	d8800115 	stw	r2,4(sp)
    24f4:	dc800015 	stw	r18,0(sp)
    24f8:	01c000c4 	movi	r7,3
    24fc:	e00d883a 	mov	r6,fp
    2500:	da801115 	stw	r10,68(sp)
    2504:	d8c01015 	stw	r3,64(sp)
    2508:	db000915 	stw	r12,36(sp)
    250c:	dac00815 	stw	r11,32(sp)
    2510:	0002da00 	call	2da0 <_dtoa_r>
    2514:	102b883a 	mov	r21,r2
    2518:	10800007 	ldb	r2,0(r2)
    251c:	dac00817 	ldw	r11,32(sp)
    2520:	db000917 	ldw	r12,36(sp)
    2524:	10800c20 	cmpeqi	r2,r2,48
    2528:	d8c01017 	ldw	r3,64(sp)
    252c:	da801117 	ldw	r10,68(sp)
    2530:	1000a31e 	bne	r2,zero,27c0 <___vfprintf_internal_r+0x2314>
    2534:	d8801717 	ldw	r2,92(sp)
    2538:	d9000a17 	ldw	r4,40(sp)
    253c:	149b883a 	add	r13,r2,r18
    2540:	000d883a 	mov	r6,zero
    2544:	000f883a 	mov	r7,zero
    2548:	e00b883a 	mov	r5,fp
    254c:	da801315 	stw	r10,76(sp)
    2550:	d8c01115 	stw	r3,68(sp)
    2554:	db001015 	stw	r12,64(sp)
    2558:	dac00915 	stw	r11,36(sp)
    255c:	db400815 	stw	r13,32(sp)
    2560:	000c2a80 	call	c2a8 <__eqdf2>
    2564:	db400817 	ldw	r13,32(sp)
    2568:	dac00917 	ldw	r11,36(sp)
    256c:	db001017 	ldw	r12,64(sp)
    2570:	d8c01117 	ldw	r3,68(sp)
    2574:	da801317 	ldw	r10,76(sp)
    2578:	10008f1e 	bne	r2,zero,27b8 <___vfprintf_internal_r+0x230c>
    257c:	d8801717 	ldw	r2,92(sp)
    2580:	db400915 	stw	r13,36(sp)
    2584:	d8800815 	stw	r2,32(sp)
    2588:	003e7d06 	br	1f80 <___vfprintf_internal_r+0x1ad4>
    258c:	d9400417 	ldw	r5,16(sp)
    2590:	d9000517 	ldw	r4,20(sp)
    2594:	d9801d04 	addi	r6,sp,116
    2598:	db401115 	stw	r13,68(sp)
    259c:	da801015 	stw	r10,64(sp)
    25a0:	d8c00f15 	stw	r3,60(sp)
    25a4:	0007edc0 	call	7edc <__sprint_r>
    25a8:	1038cc1e 	bne	r2,zero,8dc <___vfprintf_internal_r+0x430>
    25ac:	dc801717 	ldw	r18,92(sp)
    25b0:	d9001f17 	ldw	r4,124(sp)
    25b4:	db401117 	ldw	r13,68(sp)
    25b8:	da801017 	ldw	r10,64(sp)
    25bc:	d8c00f17 	ldw	r3,60(sp)
    25c0:	8821883a 	mov	r16,r17
    25c4:	003c6906 	br	176c <___vfprintf_internal_r+0x12c0>
    25c8:	981b883a 	mov	r13,r19
    25cc:	da800f17 	ldw	r10,60(sp)
    25d0:	b027883a 	mov	r19,r22
    25d4:	902d883a 	mov	r22,r18
    25d8:	8025883a 	mov	r18,r16
    25dc:	1821883a 	mov	r16,r3
    25e0:	d8c00817 	ldw	r3,32(sp)
    25e4:	003c0106 	br	15ec <___vfprintf_internal_r+0x1140>
    25e8:	903e211e 	bne	r18,zero,1e70 <___vfprintf_internal_r+0x19c4>
    25ec:	04800044 	movi	r18,1
    25f0:	003e1f06 	br	1e70 <___vfprintf_internal_r+0x19c4>
    25f4:	d9400417 	ldw	r5,16(sp)
    25f8:	d9000517 	ldw	r4,20(sp)
    25fc:	d9801d04 	addi	r6,sp,116
    2600:	db401115 	stw	r13,68(sp)
    2604:	da801015 	stw	r10,64(sp)
    2608:	d8c00f15 	stw	r3,60(sp)
    260c:	0007edc0 	call	7edc <__sprint_r>
    2610:	1038b21e 	bne	r2,zero,8dc <___vfprintf_internal_r+0x430>
    2614:	dd801f17 	ldw	r22,124(sp)
    2618:	db401117 	ldw	r13,68(sp)
    261c:	da801017 	ldw	r10,64(sp)
    2620:	d8c00f17 	ldw	r3,60(sp)
    2624:	8821883a 	mov	r16,r17
    2628:	903c3e0e 	bge	r18,zero,1724 <___vfprintf_internal_r+0x1278>
    262c:	003d1006 	br	1a70 <___vfprintf_internal_r+0x15c4>
    2630:	04800184 	movi	r18,6
    2634:	003e0e06 	br	1e70 <___vfprintf_internal_r+0x19c4>
    2638:	d9400417 	ldw	r5,16(sp)
    263c:	d9000517 	ldw	r4,20(sp)
    2640:	d9801d04 	addi	r6,sp,116
    2644:	db401015 	stw	r13,64(sp)
    2648:	da800f15 	stw	r10,60(sp)
    264c:	d8c00815 	stw	r3,32(sp)
    2650:	0007edc0 	call	7edc <__sprint_r>
    2654:	1038a11e 	bne	r2,zero,8dc <___vfprintf_internal_r+0x430>
    2658:	dc801717 	ldw	r18,92(sp)
    265c:	d8800917 	ldw	r2,36(sp)
    2660:	d9001f17 	ldw	r4,124(sp)
    2664:	db401017 	ldw	r13,64(sp)
    2668:	da800f17 	ldw	r10,60(sp)
    266c:	d8c00817 	ldw	r3,32(sp)
    2670:	8821883a 	mov	r16,r17
    2674:	14a5c83a 	sub	r18,r2,r18
    2678:	003c4f06 	br	17b8 <___vfprintf_internal_r+0x130c>
    267c:	91c0060e 	bge	r18,r7,2698 <___vfprintf_internal_r+0x21ec>
    2680:	5affff84 	addi	r11,r11,-2
    2684:	3dffffc4 	addi	r23,r7,-1
    2688:	5805883a 	mov	r2,r11
    268c:	b80b883a 	mov	r5,r23
    2690:	01000ac4 	movi	r4,43
    2694:	003f4006 	br	2398 <___vfprintf_internal_r+0x1eec>
    2698:	d9000917 	ldw	r4,36(sp)
    269c:	39001a16 	blt	r7,r4,2708 <___vfprintf_internal_r+0x225c>
    26a0:	6300004c 	andi	r12,r12,1
    26a4:	6000601e 	bne	r12,zero,2828 <___vfprintf_internal_r+0x237c>
    26a8:	381b883a 	mov	r13,r7
    26ac:	3800010e 	bge	r7,zero,26b4 <___vfprintf_internal_r+0x2208>
    26b0:	001b883a 	mov	r13,zero
    26b4:	3839883a 	mov	fp,r7
    26b8:	02c019c4 	movi	r11,103
    26bc:	003e3806 	br	1fa0 <___vfprintf_internal_r+0x1af4>
    26c0:	901b883a 	mov	r13,r18
    26c4:	dd800715 	stw	r22,28(sp)
    26c8:	9039883a 	mov	fp,r18
    26cc:	00383d06 	br	7c4 <___vfprintf_internal_r+0x318>
    26d0:	b8800c04 	addi	r2,r23,48
    26d4:	01000c04 	movi	r4,48
    26d8:	d88019c5 	stb	r2,103(sp)
    26dc:	00800104 	movi	r2,4
    26e0:	d9001985 	stb	r4,102(sp)
    26e4:	d8801215 	stw	r2,72(sp)
    26e8:	003f6a06 	br	2494 <___vfprintf_internal_r+0x1fe8>
    26ec:	6080004c 	andi	r2,r12,1
    26f0:	d8800815 	stw	r2,32(sp)
    26f4:	103f6c1e 	bne	r2,zero,24a8 <___vfprintf_internal_r+0x1ffc>
    26f8:	e01b883a 	mov	r13,fp
    26fc:	e03e280e 	bge	fp,zero,1fa0 <___vfprintf_internal_r+0x1af4>
    2700:	001b883a 	mov	r13,zero
    2704:	003e2606 	br	1fa0 <___vfprintf_internal_r+0x1af4>
    2708:	d8800917 	ldw	r2,36(sp)
    270c:	d9000c17 	ldw	r4,48(sp)
    2710:	1139883a 	add	fp,r2,r4
    2714:	d8800817 	ldw	r2,32(sp)
    2718:	00800316 	blt	zero,r2,2728 <___vfprintf_internal_r+0x227c>
    271c:	d8800817 	ldw	r2,32(sp)
    2720:	e08fc83a 	sub	r7,fp,r2
    2724:	3f000044 	addi	fp,r7,1
    2728:	e01b883a 	mov	r13,fp
    272c:	e0004316 	blt	fp,zero,283c <___vfprintf_internal_r+0x2390>
    2730:	02c019c4 	movi	r11,103
    2734:	003e1a06 	br	1fa0 <___vfprintf_internal_r+0x1af4>
    2738:	00bfffc4 	movi	r2,-1
    273c:	d8800615 	stw	r2,24(sp)
    2740:	00386a06 	br	8ec <___vfprintf_internal_r+0x440>
    2744:	da800817 	ldw	r10,32(sp)
    2748:	901b883a 	mov	r13,r18
    274c:	b025883a 	mov	r18,r22
    2750:	802d883a 	mov	r22,r16
    2754:	1821883a 	mov	r16,r3
    2758:	e007883a 	mov	r3,fp
    275c:	10800044 	addi	r2,r2,1
    2760:	2489883a 	add	r4,r4,r18
    2764:	85800015 	stw	r22,0(r16)
    2768:	84800115 	stw	r18,4(r16)
    276c:	d9001f15 	stw	r4,124(sp)
    2770:	d8801e15 	stw	r2,120(sp)
    2774:	11400208 	cmpgei	r5,r2,8
    2778:	283da026 	beq	r5,zero,1dfc <___vfprintf_internal_r+0x1950>
    277c:	d9400417 	ldw	r5,16(sp)
    2780:	d9000517 	ldw	r4,20(sp)
    2784:	d9801d04 	addi	r6,sp,116
    2788:	db401015 	stw	r13,64(sp)
    278c:	da800f15 	stw	r10,60(sp)
    2790:	d8c00815 	stw	r3,32(sp)
    2794:	0007edc0 	call	7edc <__sprint_r>
    2798:	1038501e 	bne	r2,zero,8dc <___vfprintf_internal_r+0x430>
    279c:	d9001f17 	ldw	r4,124(sp)
    27a0:	d8801e17 	ldw	r2,120(sp)
    27a4:	db401017 	ldw	r13,64(sp)
    27a8:	da800f17 	ldw	r10,60(sp)
    27ac:	d8c00817 	ldw	r3,32(sp)
    27b0:	8821883a 	mov	r16,r17
    27b4:	003d9206 	br	1e00 <___vfprintf_internal_r+0x1954>
    27b8:	ab5b883a 	add	r13,r21,r13
    27bc:	003de006 	br	1f40 <___vfprintf_internal_r+0x1a94>
    27c0:	d9000a17 	ldw	r4,40(sp)
    27c4:	000d883a 	mov	r6,zero
    27c8:	000f883a 	mov	r7,zero
    27cc:	e00b883a 	mov	r5,fp
    27d0:	da801115 	stw	r10,68(sp)
    27d4:	d8c01015 	stw	r3,64(sp)
    27d8:	db000915 	stw	r12,36(sp)
    27dc:	dac00815 	stw	r11,32(sp)
    27e0:	000c2a80 	call	c2a8 <__eqdf2>
    27e4:	dac00817 	ldw	r11,32(sp)
    27e8:	db000917 	ldw	r12,36(sp)
    27ec:	d8c01017 	ldw	r3,64(sp)
    27f0:	da801117 	ldw	r10,68(sp)
    27f4:	103f4f26 	beq	r2,zero,2534 <___vfprintf_internal_r+0x2088>
    27f8:	00800044 	movi	r2,1
    27fc:	1485c83a 	sub	r2,r2,r18
    2800:	d8801715 	stw	r2,92(sp)
    2804:	003f4c06 	br	2538 <___vfprintf_internal_r+0x208c>
    2808:	d8800b17 	ldw	r2,44(sp)
    280c:	10003216 	blt	r2,zero,28d8 <___vfprintf_internal_r+0x242c>
    2810:	ddc01643 	ldbu	r23,89(sp)
    2814:	58801210 	cmplti	r2,r11,72
    2818:	10002c1e 	bne	r2,zero,28cc <___vfprintf_internal_r+0x2420>
    281c:	05400074 	movhi	r21,1
    2820:	ad416b04 	addi	r21,r21,1452
    2824:	00393c06 	br	d18 <___vfprintf_internal_r+0x86c>
    2828:	d8800817 	ldw	r2,32(sp)
    282c:	d9000c17 	ldw	r4,48(sp)
    2830:	1139883a 	add	fp,r2,r4
    2834:	e01b883a 	mov	r13,fp
    2838:	e03fbd0e 	bge	fp,zero,2730 <___vfprintf_internal_r+0x2284>
    283c:	001b883a 	mov	r13,zero
    2840:	003fbb06 	br	2730 <___vfprintf_internal_r+0x2284>
    2844:	d9000a17 	ldw	r4,40(sp)
    2848:	000d883a 	mov	r6,zero
    284c:	000f883a 	mov	r7,zero
    2850:	e00b883a 	mov	r5,fp
    2854:	da801315 	stw	r10,76(sp)
    2858:	d8c01115 	stw	r3,68(sp)
    285c:	db001015 	stw	r12,64(sp)
    2860:	dac00815 	stw	r11,32(sp)
    2864:	000c2a80 	call	c2a8 <__eqdf2>
    2868:	dac00817 	ldw	r11,32(sp)
    286c:	db001017 	ldw	r12,64(sp)
    2870:	d8c01117 	ldw	r3,68(sp)
    2874:	da801317 	ldw	r10,76(sp)
    2878:	1000321e 	bne	r2,zero,2944 <___vfprintf_internal_r+0x2498>
    287c:	b88011e0 	cmpeqi	r2,r23,71
    2880:	d9c01717 	ldw	r7,92(sp)
    2884:	103ebb1e 	bne	r2,zero,2374 <___vfprintf_internal_r+0x1ec8>
    2888:	397fffc4 	addi	r5,r7,-1
    288c:	5805883a 	mov	r2,r11
    2890:	283ebe16 	blt	r5,zero,238c <___vfprintf_internal_r+0x1ee0>
    2894:	282f883a 	mov	r23,r5
    2898:	01000ac4 	movi	r4,43
    289c:	003ebe06 	br	2398 <___vfprintf_internal_r+0x1eec>
    28a0:	6d45c83a 	sub	r2,r13,r21
    28a4:	d9c01717 	ldw	r7,92(sp)
    28a8:	d8800915 	stw	r2,36(sp)
    28ac:	003eb106 	br	2374 <___vfprintf_internal_r+0x1ec8>
    28b0:	d8800c17 	ldw	r2,48(sp)
    28b4:	208f883a 	add	r7,r4,r2
    28b8:	3cb9883a 	add	fp,r7,r18
    28bc:	e01b883a 	mov	r13,fp
    28c0:	e03db60e 	bge	fp,zero,1f9c <___vfprintf_internal_r+0x1af0>
    28c4:	001b883a 	mov	r13,zero
    28c8:	003db406 	br	1f9c <___vfprintf_internal_r+0x1af0>
    28cc:	05400074 	movhi	r21,1
    28d0:	ad416a04 	addi	r21,r21,1448
    28d4:	00391006 	br	d18 <___vfprintf_internal_r+0x86c>
    28d8:	00800b44 	movi	r2,45
    28dc:	d8801645 	stb	r2,89(sp)
    28e0:	05c00b44 	movi	r23,45
    28e4:	003fcb06 	br	2814 <___vfprintf_internal_r+0x2368>
    28e8:	d8c00717 	ldw	r3,28(sp)
    28ec:	1c800017 	ldw	r18,0(r3)
    28f0:	18c00104 	addi	r3,r3,4
    28f4:	9000010e 	bge	r18,zero,28fc <___vfprintf_internal_r+0x2450>
    28f8:	04bfffc4 	movi	r18,-1
    28fc:	a2c00043 	ldbu	r11,1(r20)
    2900:	d8c00715 	stw	r3,28(sp)
    2904:	1029883a 	mov	r20,r2
    2908:	5ac03fcc 	andi	r11,r11,255
    290c:	5ac0201c 	xori	r11,r11,128
    2910:	5affe004 	addi	r11,r11,-128
    2914:	00373506 	br	5ec <___vfprintf_internal_r+0x140>
    2918:	1000041e 	bne	r2,zero,292c <___vfprintf_internal_r+0x2480>
    291c:	03400044 	movi	r13,1
    2920:	02c01984 	movi	r11,102
    2924:	07000044 	movi	fp,1
    2928:	003d9d06 	br	1fa0 <___vfprintf_internal_r+0x1af4>
    292c:	d8800c17 	ldw	r2,48(sp)
    2930:	11c00044 	addi	r7,r2,1
    2934:	3cb9883a 	add	fp,r7,r18
    2938:	e01b883a 	mov	r13,fp
    293c:	e03d970e 	bge	fp,zero,1f9c <___vfprintf_internal_r+0x1af0>
    2940:	003fe006 	br	28c4 <___vfprintf_internal_r+0x2418>
    2944:	d8800917 	ldw	r2,36(sp)
    2948:	a89b883a 	add	r13,r21,r2
    294c:	003d7c06 	br	1f40 <___vfprintf_internal_r+0x1a94>
    2950:	00800084 	movi	r2,2
    2954:	d8801215 	stw	r2,72(sp)
    2958:	003ece06 	br	2494 <___vfprintf_internal_r+0x1fe8>

0000295c <__vfprintf_internal>:
    295c:	00c00074 	movhi	r3,1
    2960:	2005883a 	mov	r2,r4
    2964:	1909e617 	ldw	r4,10136(r3)
    2968:	300f883a 	mov	r7,r6
    296c:	280d883a 	mov	r6,r5
    2970:	100b883a 	mov	r5,r2
    2974:	00004ac1 	jmpi	4ac <___vfprintf_internal_r>

00002978 <__sbprintf>:
    2978:	28c0038b 	ldhu	r3,14(r5)
    297c:	2880030b 	ldhu	r2,12(r5)
    2980:	2ac01917 	ldw	r11,100(r5)
    2984:	1806943a 	slli	r3,r3,16
    2988:	2a800717 	ldw	r10,28(r5)
    298c:	2a400917 	ldw	r9,36(r5)
    2990:	defee204 	addi	sp,sp,-1144
    2994:	10bfff4c 	andi	r2,r2,65533
    2998:	10c4b03a 	or	r2,r2,r3
    299c:	da001a04 	addi	r8,sp,104
    29a0:	00c10004 	movi	r3,1024
    29a4:	dc011a15 	stw	r16,1128(sp)
    29a8:	2821883a 	mov	r16,r5
    29ac:	d80b883a 	mov	r5,sp
    29b0:	dc811c15 	stw	r18,1136(sp)
    29b4:	dc411b15 	stw	r17,1132(sp)
    29b8:	dfc11d15 	stw	ra,1140(sp)
    29bc:	2025883a 	mov	r18,r4
    29c0:	dac01915 	stw	r11,100(sp)
    29c4:	d8800315 	stw	r2,12(sp)
    29c8:	da800715 	stw	r10,28(sp)
    29cc:	da400915 	stw	r9,36(sp)
    29d0:	da000015 	stw	r8,0(sp)
    29d4:	da000415 	stw	r8,16(sp)
    29d8:	d8c00215 	stw	r3,8(sp)
    29dc:	d8c00515 	stw	r3,20(sp)
    29e0:	d8000615 	stw	zero,24(sp)
    29e4:	00004ac0 	call	4ac <___vfprintf_internal_r>
    29e8:	1023883a 	mov	r17,r2
    29ec:	10000d0e 	bge	r2,zero,2a24 <__sbprintf+0xac>
    29f0:	d880030b 	ldhu	r2,12(sp)
    29f4:	1080100c 	andi	r2,r2,64
    29f8:	10000326 	beq	r2,zero,2a08 <__sbprintf+0x90>
    29fc:	8080030b 	ldhu	r2,12(r16)
    2a00:	10801014 	ori	r2,r2,64
    2a04:	8080030d 	sth	r2,12(r16)
    2a08:	8805883a 	mov	r2,r17
    2a0c:	dfc11d17 	ldw	ra,1140(sp)
    2a10:	dc811c17 	ldw	r18,1136(sp)
    2a14:	dc411b17 	ldw	r17,1132(sp)
    2a18:	dc011a17 	ldw	r16,1128(sp)
    2a1c:	dec11e04 	addi	sp,sp,1144
    2a20:	f800283a 	ret
    2a24:	d80b883a 	mov	r5,sp
    2a28:	9009883a 	mov	r4,r18
    2a2c:	00047900 	call	4790 <_fflush_r>
    2a30:	103fef26 	beq	r2,zero,29f0 <__sbprintf+0x78>
    2a34:	047fffc4 	movi	r17,-1
    2a38:	003fed06 	br	29f0 <__sbprintf+0x78>

00002a3c <__swsetup_r>:
    2a3c:	00800074 	movhi	r2,1
    2a40:	1089e617 	ldw	r2,10136(r2)
    2a44:	defffd04 	addi	sp,sp,-12
    2a48:	dc400115 	stw	r17,4(sp)
    2a4c:	dc000015 	stw	r16,0(sp)
    2a50:	dfc00215 	stw	ra,8(sp)
    2a54:	2023883a 	mov	r17,r4
    2a58:	2821883a 	mov	r16,r5
    2a5c:	10000226 	beq	r2,zero,2a68 <__swsetup_r+0x2c>
    2a60:	10c00e17 	ldw	r3,56(r2)
    2a64:	18001d26 	beq	r3,zero,2adc <__swsetup_r+0xa0>
    2a68:	80c0030b 	ldhu	r3,12(r16)
    2a6c:	1880020c 	andi	r2,r3,8
    2a70:	10001f26 	beq	r2,zero,2af0 <__swsetup_r+0xb4>
    2a74:	80800417 	ldw	r2,16(r16)
    2a78:	10002626 	beq	r2,zero,2b14 <__swsetup_r+0xd8>
    2a7c:	1900004c 	andi	r4,r3,1
    2a80:	20000b1e 	bne	r4,zero,2ab0 <__swsetup_r+0x74>
    2a84:	1900008c 	andi	r4,r3,2
    2a88:	20002b1e 	bne	r4,zero,2b38 <__swsetup_r+0xfc>
    2a8c:	81000517 	ldw	r4,20(r16)
    2a90:	81000215 	stw	r4,8(r16)
    2a94:	10000b26 	beq	r2,zero,2ac4 <__swsetup_r+0x88>
    2a98:	0005883a 	mov	r2,zero
    2a9c:	dfc00217 	ldw	ra,8(sp)
    2aa0:	dc400117 	ldw	r17,4(sp)
    2aa4:	dc000017 	ldw	r16,0(sp)
    2aa8:	dec00304 	addi	sp,sp,12
    2aac:	f800283a 	ret
    2ab0:	81000517 	ldw	r4,20(r16)
    2ab4:	80000215 	stw	zero,8(r16)
    2ab8:	0109c83a 	sub	r4,zero,r4
    2abc:	81000615 	stw	r4,24(r16)
    2ac0:	103ff51e 	bne	r2,zero,2a98 <__swsetup_r+0x5c>
    2ac4:	1900200c 	andi	r4,r3,128
    2ac8:	203ff426 	beq	r4,zero,2a9c <__swsetup_r+0x60>
    2acc:	18c01014 	ori	r3,r3,64
    2ad0:	80c0030d 	sth	r3,12(r16)
    2ad4:	00bfffc4 	movi	r2,-1
    2ad8:	003ff006 	br	2a9c <__swsetup_r+0x60>
    2adc:	1009883a 	mov	r4,r2
    2ae0:	0004bb80 	call	4bb8 <__sinit>
    2ae4:	80c0030b 	ldhu	r3,12(r16)
    2ae8:	1880020c 	andi	r2,r3,8
    2aec:	103fe11e 	bne	r2,zero,2a74 <__swsetup_r+0x38>
    2af0:	1880040c 	andi	r2,r3,16
    2af4:	10002026 	beq	r2,zero,2b78 <__swsetup_r+0x13c>
    2af8:	1880010c 	andi	r2,r3,4
    2afc:	1000101e 	bne	r2,zero,2b40 <__swsetup_r+0x104>
    2b00:	80800417 	ldw	r2,16(r16)
    2b04:	19000214 	ori	r4,r3,8
    2b08:	8100030d 	sth	r4,12(r16)
    2b0c:	2007883a 	mov	r3,r4
    2b10:	103fda1e 	bne	r2,zero,2a7c <__swsetup_r+0x40>
    2b14:	1900a00c 	andi	r4,r3,640
    2b18:	21008020 	cmpeqi	r4,r4,512
    2b1c:	203fd71e 	bne	r4,zero,2a7c <__swsetup_r+0x40>
    2b20:	800b883a 	mov	r5,r16
    2b24:	8809883a 	mov	r4,r17
    2b28:	00056340 	call	5634 <__smakebuf_r>
    2b2c:	80c0030b 	ldhu	r3,12(r16)
    2b30:	80800417 	ldw	r2,16(r16)
    2b34:	003fd106 	br	2a7c <__swsetup_r+0x40>
    2b38:	0009883a 	mov	r4,zero
    2b3c:	003fd406 	br	2a90 <__swsetup_r+0x54>
    2b40:	81400c17 	ldw	r5,48(r16)
    2b44:	28000626 	beq	r5,zero,2b60 <__swsetup_r+0x124>
    2b48:	80801004 	addi	r2,r16,64
    2b4c:	28800326 	beq	r5,r2,2b5c <__swsetup_r+0x120>
    2b50:	8809883a 	mov	r4,r17
    2b54:	0004d240 	call	4d24 <_free_r>
    2b58:	80c0030b 	ldhu	r3,12(r16)
    2b5c:	80000c15 	stw	zero,48(r16)
    2b60:	80800417 	ldw	r2,16(r16)
    2b64:	013ff6c4 	movi	r4,-37
    2b68:	20c6703a 	and	r3,r4,r3
    2b6c:	80000115 	stw	zero,4(r16)
    2b70:	80800015 	stw	r2,0(r16)
    2b74:	003fe306 	br	2b04 <__swsetup_r+0xc8>
    2b78:	00800244 	movi	r2,9
    2b7c:	88800015 	stw	r2,0(r17)
    2b80:	18c01014 	ori	r3,r3,64
    2b84:	003fd206 	br	2ad0 <__swsetup_r+0x94>

00002b88 <quorem>:
    2b88:	defff204 	addi	sp,sp,-56
    2b8c:	dc400515 	stw	r17,20(sp)
    2b90:	20800417 	ldw	r2,16(r4)
    2b94:	2c400417 	ldw	r17,16(r5)
    2b98:	dfc00d15 	stw	ra,52(sp)
    2b9c:	df000c15 	stw	fp,48(sp)
    2ba0:	ddc00b15 	stw	r23,44(sp)
    2ba4:	dd800a15 	stw	r22,40(sp)
    2ba8:	dd400915 	stw	r21,36(sp)
    2bac:	dd000815 	stw	r20,32(sp)
    2bb0:	dcc00715 	stw	r19,28(sp)
    2bb4:	dc800615 	stw	r18,24(sp)
    2bb8:	dc000415 	stw	r16,16(sp)
    2bbc:	d9000115 	stw	r4,4(sp)
    2bc0:	d9400215 	stw	r5,8(sp)
    2bc4:	14407416 	blt	r2,r17,2d98 <quorem+0x210>
    2bc8:	8c7fffc4 	addi	r17,r17,-1
    2bcc:	882a90ba 	slli	r21,r17,2
    2bd0:	2dc00504 	addi	r23,r5,20
    2bd4:	24c00504 	addi	r19,r4,20
    2bd8:	bd65883a 	add	r18,r23,r21
    2bdc:	9d45883a 	add	r2,r19,r21
    2be0:	97000017 	ldw	fp,0(r18)
    2be4:	15000017 	ldw	r20,0(r2)
    2be8:	d8800315 	stw	r2,12(sp)
    2bec:	e7000044 	addi	fp,fp,1
    2bf0:	e00b883a 	mov	r5,fp
    2bf4:	a009883a 	mov	r4,r20
    2bf8:	000afd00 	call	afd0 <__udivsi3>
    2bfc:	d8800015 	stw	r2,0(sp)
    2c00:	a7002e36 	bltu	r20,fp,2cbc <quorem+0x134>
    2c04:	b829883a 	mov	r20,r23
    2c08:	982d883a 	mov	r22,r19
    2c0c:	0039883a 	mov	fp,zero
    2c10:	002b883a 	mov	r21,zero
    2c14:	a4000017 	ldw	r16,0(r20)
    2c18:	d9400017 	ldw	r5,0(sp)
    2c1c:	b5800104 	addi	r22,r22,4
    2c20:	813fffcc 	andi	r4,r16,65535
    2c24:	000b0900 	call	b090 <__mulsi3>
    2c28:	8008d43a 	srli	r4,r16,16
    2c2c:	d9400017 	ldw	r5,0(sp)
    2c30:	1739883a 	add	fp,r2,fp
    2c34:	a5000104 	addi	r20,r20,4
    2c38:	000b0900 	call	b090 <__mulsi3>
    2c3c:	b17fff17 	ldw	r5,-4(r22)
    2c40:	e13fffcc 	andi	r4,fp,65535
    2c44:	e038d43a 	srli	fp,fp,16
    2c48:	28ffffcc 	andi	r3,r5,65535
    2c4c:	1907c83a 	sub	r3,r3,r4
    2c50:	1d47883a 	add	r3,r3,r21
    2c54:	1809d43a 	srai	r4,r3,16
    2c58:	280ad43a 	srli	r5,r5,16
    2c5c:	1705883a 	add	r2,r2,fp
    2c60:	11bfffcc 	andi	r6,r2,65535
    2c64:	2189c83a 	sub	r4,r4,r6
    2c68:	2149883a 	add	r4,r4,r5
    2c6c:	200a943a 	slli	r5,r4,16
    2c70:	18ffffcc 	andi	r3,r3,65535
    2c74:	1038d43a 	srli	fp,r2,16
    2c78:	1946b03a 	or	r3,r3,r5
    2c7c:	b0ffff15 	stw	r3,-4(r22)
    2c80:	202bd43a 	srai	r21,r4,16
    2c84:	953fe32e 	bgeu	r18,r20,2c14 <quorem+0x8c>
    2c88:	d8c00317 	ldw	r3,12(sp)
    2c8c:	18800017 	ldw	r2,0(r3)
    2c90:	10000a1e 	bne	r2,zero,2cbc <quorem+0x134>
    2c94:	1d7fff04 	addi	r21,r3,-4
    2c98:	9d400336 	bltu	r19,r21,2ca8 <quorem+0x120>
    2c9c:	00000506 	br	2cb4 <quorem+0x12c>
    2ca0:	8c7fffc4 	addi	r17,r17,-1
    2ca4:	9d40032e 	bgeu	r19,r21,2cb4 <quorem+0x12c>
    2ca8:	a8800017 	ldw	r2,0(r21)
    2cac:	ad7fff04 	addi	r21,r21,-4
    2cb0:	103ffb26 	beq	r2,zero,2ca0 <quorem+0x118>
    2cb4:	d8800117 	ldw	r2,4(sp)
    2cb8:	14400415 	stw	r17,16(r2)
    2cbc:	d9400217 	ldw	r5,8(sp)
    2cc0:	d9000117 	ldw	r4,4(sp)
    2cc4:	0006f2c0 	call	6f2c <__mcmp>
    2cc8:	10002616 	blt	r2,zero,2d64 <quorem+0x1dc>
    2ccc:	980d883a 	mov	r6,r19
    2cd0:	0005883a 	mov	r2,zero
    2cd4:	31000017 	ldw	r4,0(r6)
    2cd8:	b9400017 	ldw	r5,0(r23)
    2cdc:	31800104 	addi	r6,r6,4
    2ce0:	20ffffcc 	andi	r3,r4,65535
    2ce4:	29ffffcc 	andi	r7,r5,65535
    2ce8:	19c7c83a 	sub	r3,r3,r7
    2cec:	1887883a 	add	r3,r3,r2
    2cf0:	1805d43a 	srai	r2,r3,16
    2cf4:	280ad43a 	srli	r5,r5,16
    2cf8:	2008d43a 	srli	r4,r4,16
    2cfc:	18ffffcc 	andi	r3,r3,65535
    2d00:	1145c83a 	sub	r2,r2,r5
    2d04:	1105883a 	add	r2,r2,r4
    2d08:	1008943a 	slli	r4,r2,16
    2d0c:	bdc00104 	addi	r23,r23,4
    2d10:	1005d43a 	srai	r2,r2,16
    2d14:	1906b03a 	or	r3,r3,r4
    2d18:	30ffff15 	stw	r3,-4(r6)
    2d1c:	95ffed2e 	bgeu	r18,r23,2cd4 <quorem+0x14c>
    2d20:	880490ba 	slli	r2,r17,2
    2d24:	9885883a 	add	r2,r19,r2
    2d28:	10c00017 	ldw	r3,0(r2)
    2d2c:	18000a1e 	bne	r3,zero,2d58 <quorem+0x1d0>
    2d30:	10bfff04 	addi	r2,r2,-4
    2d34:	98800336 	bltu	r19,r2,2d44 <quorem+0x1bc>
    2d38:	00000506 	br	2d50 <quorem+0x1c8>
    2d3c:	8c7fffc4 	addi	r17,r17,-1
    2d40:	9880032e 	bgeu	r19,r2,2d50 <quorem+0x1c8>
    2d44:	10c00017 	ldw	r3,0(r2)
    2d48:	10bfff04 	addi	r2,r2,-4
    2d4c:	183ffb26 	beq	r3,zero,2d3c <quorem+0x1b4>
    2d50:	d8800117 	ldw	r2,4(sp)
    2d54:	14400415 	stw	r17,16(r2)
    2d58:	d8800017 	ldw	r2,0(sp)
    2d5c:	10800044 	addi	r2,r2,1
    2d60:	d8800015 	stw	r2,0(sp)
    2d64:	d8800017 	ldw	r2,0(sp)
    2d68:	dfc00d17 	ldw	ra,52(sp)
    2d6c:	df000c17 	ldw	fp,48(sp)
    2d70:	ddc00b17 	ldw	r23,44(sp)
    2d74:	dd800a17 	ldw	r22,40(sp)
    2d78:	dd400917 	ldw	r21,36(sp)
    2d7c:	dd000817 	ldw	r20,32(sp)
    2d80:	dcc00717 	ldw	r19,28(sp)
    2d84:	dc800617 	ldw	r18,24(sp)
    2d88:	dc400517 	ldw	r17,20(sp)
    2d8c:	dc000417 	ldw	r16,16(sp)
    2d90:	dec00e04 	addi	sp,sp,56
    2d94:	f800283a 	ret
    2d98:	0005883a 	mov	r2,zero
    2d9c:	003ff206 	br	2d68 <quorem+0x1e0>

00002da0 <_dtoa_r>:
    2da0:	20801017 	ldw	r2,64(r4)
    2da4:	deffe104 	addi	sp,sp,-124
    2da8:	dd401a15 	stw	r21,104(sp)
    2dac:	dc801715 	stw	r18,92(sp)
    2db0:	dc401615 	stw	r17,88(sp)
    2db4:	dc001515 	stw	r16,84(sp)
    2db8:	dfc01e15 	stw	ra,120(sp)
    2dbc:	df001d15 	stw	fp,116(sp)
    2dc0:	ddc01c15 	stw	r23,112(sp)
    2dc4:	dd801b15 	stw	r22,108(sp)
    2dc8:	dd001915 	stw	r20,100(sp)
    2dcc:	dcc01815 	stw	r19,96(sp)
    2dd0:	d9400215 	stw	r5,8(sp)
    2dd4:	d9c00115 	stw	r7,4(sp)
    2dd8:	dc402117 	ldw	r17,132(sp)
    2ddc:	2021883a 	mov	r16,r4
    2de0:	3025883a 	mov	r18,r6
    2de4:	302b883a 	mov	r21,r6
    2de8:	10000826 	beq	r2,zero,2e0c <_dtoa_r+0x6c>
    2dec:	21801117 	ldw	r6,68(r4)
    2df0:	00c00044 	movi	r3,1
    2df4:	100b883a 	mov	r5,r2
    2df8:	1986983a 	sll	r3,r3,r6
    2dfc:	11800115 	stw	r6,4(r2)
    2e00:	10c00215 	stw	r3,8(r2)
    2e04:	000651c0 	call	651c <_Bfree>
    2e08:	80001015 	stw	zero,64(r16)
    2e0c:	90019316 	blt	r18,zero,345c <_dtoa_r+0x6bc>
    2e10:	88000015 	stw	zero,0(r17)
    2e14:	909ffc2c 	andhi	r2,r18,32752
    2e18:	00dffc34 	movhi	r3,32752
    2e1c:	10c19826 	beq	r2,r3,3480 <_dtoa_r+0x6e0>
    2e20:	d9000217 	ldw	r4,8(sp)
    2e24:	000d883a 	mov	r6,zero
    2e28:	000f883a 	mov	r7,zero
    2e2c:	a80b883a 	mov	r5,r21
    2e30:	000c2a80 	call	c2a8 <__eqdf2>
    2e34:	1000181e 	bne	r2,zero,2e98 <_dtoa_r+0xf8>
    2e38:	d8c02017 	ldw	r3,128(sp)
    2e3c:	00800044 	movi	r2,1
    2e40:	18800015 	stw	r2,0(r3)
    2e44:	d8802217 	ldw	r2,136(sp)
    2e48:	10000426 	beq	r2,zero,2e5c <_dtoa_r+0xbc>
    2e4c:	d8c02217 	ldw	r3,136(sp)
    2e50:	00800074 	movhi	r2,1
    2e54:	10817844 	addi	r2,r2,1505
    2e58:	18800015 	stw	r2,0(r3)
    2e5c:	07000074 	movhi	fp,1
    2e60:	e7017804 	addi	fp,fp,1504
    2e64:	e005883a 	mov	r2,fp
    2e68:	dfc01e17 	ldw	ra,120(sp)
    2e6c:	df001d17 	ldw	fp,116(sp)
    2e70:	ddc01c17 	ldw	r23,112(sp)
    2e74:	dd801b17 	ldw	r22,108(sp)
    2e78:	dd401a17 	ldw	r21,104(sp)
    2e7c:	dd001917 	ldw	r20,100(sp)
    2e80:	dcc01817 	ldw	r19,96(sp)
    2e84:	dc801717 	ldw	r18,92(sp)
    2e88:	dc401617 	ldw	r17,88(sp)
    2e8c:	dc001517 	ldw	r16,84(sp)
    2e90:	dec01f04 	addi	sp,sp,124
    2e94:	f800283a 	ret
    2e98:	dcc00217 	ldw	r19,8(sp)
    2e9c:	d8801304 	addi	r2,sp,76
    2ea0:	9022d53a 	srli	r17,r18,20
    2ea4:	d8800015 	stw	r2,0(sp)
    2ea8:	d9c01404 	addi	r7,sp,80
    2eac:	980b883a 	mov	r5,r19
    2eb0:	a80d883a 	mov	r6,r21
    2eb4:	8009883a 	mov	r4,r16
    2eb8:	00073140 	call	7314 <__d2b>
    2ebc:	102f883a 	mov	r23,r2
    2ec0:	8801811e 	bne	r17,zero,34c8 <_dtoa_r+0x728>
    2ec4:	dd001317 	ldw	r20,76(sp)
    2ec8:	dc401417 	ldw	r17,80(sp)
    2ecc:	a463883a 	add	r17,r20,r17
    2ed0:	88810c84 	addi	r2,r17,1074
    2ed4:	10c00850 	cmplti	r3,r2,33
    2ed8:	1803101e 	bne	r3,zero,3b1c <_dtoa_r+0xd7c>
    2edc:	00c01004 	movi	r3,64
    2ee0:	1887c83a 	sub	r3,r3,r2
    2ee4:	90c8983a 	sll	r4,r18,r3
    2ee8:	d8c00217 	ldw	r3,8(sp)
    2eec:	88810484 	addi	r2,r17,1042
    2ef0:	1884d83a 	srl	r2,r3,r2
    2ef4:	2088b03a 	or	r4,r4,r2
    2ef8:	000d8600 	call	d860 <__floatunsidf>
    2efc:	1009883a 	mov	r4,r2
    2f00:	00bf8434 	movhi	r2,65040
    2f04:	188b883a 	add	r5,r3,r2
    2f08:	00800044 	movi	r2,1
    2f0c:	8c7fffc4 	addi	r17,r17,-1
    2f10:	d8800915 	stw	r2,36(sp)
    2f14:	000d883a 	mov	r6,zero
    2f18:	01cffe34 	movhi	r7,16376
    2f1c:	000cd380 	call	cd38 <__subdf3>
    2f20:	0198dbf4 	movhi	r6,25455
    2f24:	01cff4f4 	movhi	r7,16339
    2f28:	3190d844 	addi	r6,r6,17249
    2f2c:	39e1e9c4 	addi	r7,r7,-30809
    2f30:	1009883a 	mov	r4,r2
    2f34:	180b883a 	mov	r5,r3
    2f38:	000c5300 	call	c530 <__muldf3>
    2f3c:	01a2d874 	movhi	r6,35681
    2f40:	01cff1f4 	movhi	r7,16327
    2f44:	31b22cc4 	addi	r6,r6,-14157
    2f48:	39e28a04 	addi	r7,r7,-30168
    2f4c:	180b883a 	mov	r5,r3
    2f50:	1009883a 	mov	r4,r2
    2f54:	000b0b80 	call	b0b8 <__adddf3>
    2f58:	8809883a 	mov	r4,r17
    2f5c:	1027883a 	mov	r19,r2
    2f60:	1825883a 	mov	r18,r3
    2f64:	000d7a80 	call	d7a8 <__floatsidf>
    2f68:	019427f4 	movhi	r6,20639
    2f6c:	01cff4f4 	movhi	r7,16339
    2f70:	319e7ec4 	addi	r6,r6,31227
    2f74:	39d104c4 	addi	r7,r7,17427
    2f78:	1009883a 	mov	r4,r2
    2f7c:	180b883a 	mov	r5,r3
    2f80:	000c5300 	call	c530 <__muldf3>
    2f84:	100d883a 	mov	r6,r2
    2f88:	180f883a 	mov	r7,r3
    2f8c:	9809883a 	mov	r4,r19
    2f90:	900b883a 	mov	r5,r18
    2f94:	000b0b80 	call	b0b8 <__adddf3>
    2f98:	1009883a 	mov	r4,r2
    2f9c:	180b883a 	mov	r5,r3
    2fa0:	1027883a 	mov	r19,r2
    2fa4:	1825883a 	mov	r18,r3
    2fa8:	000d7280 	call	d728 <__fixdfsi>
    2fac:	000d883a 	mov	r6,zero
    2fb0:	000f883a 	mov	r7,zero
    2fb4:	9809883a 	mov	r4,r19
    2fb8:	900b883a 	mov	r5,r18
    2fbc:	102d883a 	mov	r22,r2
    2fc0:	000c4380 	call	c438 <__ledf2>
    2fc4:	1002a616 	blt	r2,zero,3a60 <_dtoa_r+0xcc0>
    2fc8:	a469c83a 	sub	r20,r20,r17
    2fcc:	a0ffffc4 	addi	r3,r20,-1
    2fd0:	b08005e8 	cmpgeui	r2,r22,23
    2fd4:	d8c00415 	stw	r3,16(sp)
    2fd8:	1002981e 	bne	r2,zero,3a3c <_dtoa_r+0xc9c>
    2fdc:	b00490fa 	slli	r2,r22,3
    2fe0:	02c00074 	movhi	r11,1
    2fe4:	5ac1c104 	addi	r11,r11,1796
    2fe8:	5885883a 	add	r2,r11,r2
    2fec:	11800017 	ldw	r6,0(r2)
    2ff0:	11c00117 	ldw	r7,4(r2)
    2ff4:	d9000217 	ldw	r4,8(sp)
    2ff8:	a80b883a 	mov	r5,r21
    2ffc:	000c4380 	call	c438 <__ledf2>
    3000:	1001d60e 	bge	r2,zero,375c <_dtoa_r+0x9bc>
    3004:	d8000815 	stw	zero,32(sp)
    3008:	a0bfffc4 	addi	r2,r20,-1
    300c:	b5bfffc4 	addi	r22,r22,-1
    3010:	10028e16 	blt	r2,zero,3a4c <_dtoa_r+0xcac>
    3014:	d8000515 	stw	zero,20(sp)
    3018:	b001d30e 	bge	r22,zero,3768 <_dtoa_r+0x9c8>
    301c:	d8800517 	ldw	r2,20(sp)
    3020:	d8c00117 	ldw	r3,4(sp)
    3024:	dd800615 	stw	r22,24(sp)
    3028:	1585c83a 	sub	r2,r2,r22
    302c:	d8800515 	stw	r2,20(sp)
    3030:	0585c83a 	sub	r2,zero,r22
    3034:	d8800315 	stw	r2,12(sp)
    3038:	188002a8 	cmpgeui	r2,r3,10
    303c:	002d883a 	mov	r22,zero
    3040:	1001d11e 	bne	r2,zero,3788 <_dtoa_r+0x9e8>
    3044:	18800190 	cmplti	r2,r3,6
    3048:	1002a31e 	bne	r2,zero,3ad8 <_dtoa_r+0xd38>
    304c:	18ffff04 	addi	r3,r3,-4
    3050:	d8c00115 	stw	r3,4(sp)
    3054:	188000e0 	cmpeqi	r2,r3,3
    3058:	0023883a 	mov	r17,zero
    305c:	1003b71e 	bne	r2,zero,3f3c <_dtoa_r+0x119c>
    3060:	18800108 	cmpgei	r2,r3,4
    3064:	1003a626 	beq	r2,zero,3f00 <_dtoa_r+0x1160>
    3068:	d8800117 	ldw	r2,4(sp)
    306c:	10800120 	cmpeqi	r2,r2,4
    3070:	1003611e 	bne	r2,zero,3df8 <_dtoa_r+0x1058>
    3074:	00800144 	movi	r2,5
    3078:	d8800115 	stw	r2,4(sp)
    307c:	00800044 	movi	r2,1
    3080:	d8800715 	stw	r2,28(sp)
    3084:	d8801f17 	ldw	r2,124(sp)
    3088:	d8c00617 	ldw	r3,24(sp)
    308c:	10c5883a 	add	r2,r2,r3
    3090:	14800044 	addi	r18,r2,1
    3094:	d8800a15 	stw	r2,40(sp)
    3098:	900d883a 	mov	r6,r18
    309c:	0485320e 	bge	zero,r18,4568 <_dtoa_r+0x17c8>
    30a0:	30800608 	cmpgei	r2,r6,24
    30a4:	10053026 	beq	r2,zero,4568 <_dtoa_r+0x17c8>
    30a8:	00c00044 	movi	r3,1
    30ac:	00800104 	movi	r2,4
    30b0:	1085883a 	add	r2,r2,r2
    30b4:	11000504 	addi	r4,r2,20
    30b8:	180b883a 	mov	r5,r3
    30bc:	18c00044 	addi	r3,r3,1
    30c0:	313ffb2e 	bgeu	r6,r4,30b0 <_dtoa_r+0x310>
    30c4:	81401115 	stw	r5,68(r16)
    30c8:	8009883a 	mov	r4,r16
    30cc:	00064780 	call	6478 <_Balloc>
    30d0:	1039883a 	mov	fp,r2
    30d4:	10050d26 	beq	r2,zero,450c <_dtoa_r+0x176c>
    30d8:	80801015 	stw	r2,64(r16)
    30dc:	908003e8 	cmpgeui	r2,r18,15
    30e0:	1001291e 	bne	r2,zero,3588 <_dtoa_r+0x7e8>
    30e4:	88012826 	beq	r17,zero,3588 <_dtoa_r+0x7e8>
    30e8:	d8c00617 	ldw	r3,24(sp)
    30ec:	00c3b40e 	bge	zero,r3,3fc0 <_dtoa_r+0x1220>
    30f0:	188003cc 	andi	r2,r3,15
    30f4:	100490fa 	slli	r2,r2,3
    30f8:	1823d13a 	srai	r17,r3,4
    30fc:	02c00074 	movhi	r11,1
    3100:	5ac1c104 	addi	r11,r11,1796
    3104:	5885883a 	add	r2,r11,r2
    3108:	88c0040c 	andi	r3,r17,16
    310c:	12400017 	ldw	r9,0(r2)
    3110:	12000117 	ldw	r8,4(r2)
    3114:	18037626 	beq	r3,zero,3ef0 <_dtoa_r+0x1150>
    3118:	00800074 	movhi	r2,1
    311c:	1081b704 	addi	r2,r2,1756
    3120:	d9000217 	ldw	r4,8(sp)
    3124:	11800817 	ldw	r6,32(r2)
    3128:	11c00917 	ldw	r7,36(r2)
    312c:	a80b883a 	mov	r5,r21
    3130:	da000c15 	stw	r8,48(sp)
    3134:	da400b15 	stw	r9,44(sp)
    3138:	000b9bc0 	call	b9bc <__divdf3>
    313c:	da400b17 	ldw	r9,44(sp)
    3140:	da000c17 	ldw	r8,48(sp)
    3144:	8c4003cc 	andi	r17,r17,15
    3148:	1009883a 	mov	r4,r2
    314c:	180b883a 	mov	r5,r3
    3150:	04c000c4 	movi	r19,3
    3154:	88001c26 	beq	r17,zero,31c8 <_dtoa_r+0x428>
    3158:	05000074 	movhi	r20,1
    315c:	a501b704 	addi	r20,r20,1756
    3160:	dc800b15 	stw	r18,44(sp)
    3164:	dc000c15 	stw	r16,48(sp)
    3168:	9825883a 	mov	r18,r19
    316c:	a021883a 	mov	r16,r20
    3170:	2827883a 	mov	r19,r5
    3174:	2029883a 	mov	r20,r4
    3178:	400b883a 	mov	r5,r8
    317c:	4809883a 	mov	r4,r9
    3180:	8980004c 	andi	r6,r17,1
    3184:	30000626 	beq	r6,zero,31a0 <_dtoa_r+0x400>
    3188:	81800017 	ldw	r6,0(r16)
    318c:	81c00117 	ldw	r7,4(r16)
    3190:	94800044 	addi	r18,r18,1
    3194:	000c5300 	call	c530 <__muldf3>
    3198:	1009883a 	mov	r4,r2
    319c:	180b883a 	mov	r5,r3
    31a0:	8823d07a 	srai	r17,r17,1
    31a4:	84000204 	addi	r16,r16,8
    31a8:	883ff51e 	bne	r17,zero,3180 <_dtoa_r+0x3e0>
    31ac:	2811883a 	mov	r8,r5
    31b0:	dc000c17 	ldw	r16,48(sp)
    31b4:	980b883a 	mov	r5,r19
    31b8:	9027883a 	mov	r19,r18
    31bc:	dc800b17 	ldw	r18,44(sp)
    31c0:	2013883a 	mov	r9,r4
    31c4:	a009883a 	mov	r4,r20
    31c8:	480d883a 	mov	r6,r9
    31cc:	400f883a 	mov	r7,r8
    31d0:	000b9bc0 	call	b9bc <__divdf3>
    31d4:	1023883a 	mov	r17,r2
    31d8:	1829883a 	mov	r20,r3
    31dc:	d8800817 	ldw	r2,32(sp)
    31e0:	10000626 	beq	r2,zero,31fc <_dtoa_r+0x45c>
    31e4:	000d883a 	mov	r6,zero
    31e8:	01cffc34 	movhi	r7,16368
    31ec:	8809883a 	mov	r4,r17
    31f0:	a00b883a 	mov	r5,r20
    31f4:	000c4380 	call	c438 <__ledf2>
    31f8:	10045a16 	blt	r2,zero,4364 <_dtoa_r+0x15c4>
    31fc:	9809883a 	mov	r4,r19
    3200:	000d7a80 	call	d7a8 <__floatsidf>
    3204:	880d883a 	mov	r6,r17
    3208:	a00f883a 	mov	r7,r20
    320c:	1009883a 	mov	r4,r2
    3210:	180b883a 	mov	r5,r3
    3214:	000c5300 	call	c530 <__muldf3>
    3218:	000d883a 	mov	r6,zero
    321c:	01d00734 	movhi	r7,16412
    3220:	1009883a 	mov	r4,r2
    3224:	180b883a 	mov	r5,r3
    3228:	000b0b80 	call	b0b8 <__adddf3>
    322c:	d8800b15 	stw	r2,44(sp)
    3230:	00bf3034 	movhi	r2,64704
    3234:	18a7883a 	add	r19,r3,r2
    3238:	9000c026 	beq	r18,zero,353c <_dtoa_r+0x79c>
    323c:	d8800617 	ldw	r2,24(sp)
    3240:	dc800c15 	stw	r18,48(sp)
    3244:	d8801115 	stw	r2,68(sp)
    3248:	d8800c17 	ldw	r2,48(sp)
    324c:	02c00074 	movhi	r11,1
    3250:	5ac1c104 	addi	r11,r11,1796
    3254:	10bfffc4 	addi	r2,r2,-1
    3258:	100490fa 	slli	r2,r2,3
    325c:	8809883a 	mov	r4,r17
    3260:	a00b883a 	mov	r5,r20
    3264:	5885883a 	add	r2,r11,r2
    3268:	10c00017 	ldw	r3,0(r2)
    326c:	10800117 	ldw	r2,4(r2)
    3270:	dac00d15 	stw	r11,52(sp)
    3274:	d8c00f15 	stw	r3,60(sp)
    3278:	d8801015 	stw	r2,64(sp)
    327c:	000d7280 	call	d728 <__fixdfsi>
    3280:	11400c04 	addi	r5,r2,48
    3284:	1009883a 	mov	r4,r2
    3288:	d9400e15 	stw	r5,56(sp)
    328c:	000d7a80 	call	d7a8 <__floatsidf>
    3290:	8809883a 	mov	r4,r17
    3294:	a00b883a 	mov	r5,r20
    3298:	100d883a 	mov	r6,r2
    329c:	180f883a 	mov	r7,r3
    32a0:	000cd380 	call	cd38 <__subdf3>
    32a4:	d9000717 	ldw	r4,28(sp)
    32a8:	dac00d17 	ldw	r11,52(sp)
    32ac:	e2000044 	addi	r8,fp,1
    32b0:	1029883a 	mov	r20,r2
    32b4:	1823883a 	mov	r17,r3
    32b8:	2003ce26 	beq	r4,zero,41f4 <_dtoa_r+0x1454>
    32bc:	d9800f17 	ldw	r6,60(sp)
    32c0:	d9c01017 	ldw	r7,64(sp)
    32c4:	0009883a 	mov	r4,zero
    32c8:	014ff834 	movhi	r5,16352
    32cc:	da001215 	stw	r8,72(sp)
    32d0:	000b9bc0 	call	b9bc <__divdf3>
    32d4:	d9800b17 	ldw	r6,44(sp)
    32d8:	980f883a 	mov	r7,r19
    32dc:	1009883a 	mov	r4,r2
    32e0:	180b883a 	mov	r5,r3
    32e4:	000cd380 	call	cd38 <__subdf3>
    32e8:	1009883a 	mov	r4,r2
    32ec:	d8800e17 	ldw	r2,56(sp)
    32f0:	180b883a 	mov	r5,r3
    32f4:	a00d883a 	mov	r6,r20
    32f8:	e0800005 	stb	r2,0(fp)
    32fc:	880f883a 	mov	r7,r17
    3300:	d9000d15 	stw	r4,52(sp)
    3304:	d8c00b15 	stw	r3,44(sp)
    3308:	000c33c0 	call	c33c <__gedf2>
    330c:	d9400b17 	ldw	r5,44(sp)
    3310:	d9000d17 	ldw	r4,52(sp)
    3314:	da001217 	ldw	r8,72(sp)
    3318:	00840b16 	blt	zero,r2,4348 <_dtoa_r+0x15a8>
    331c:	0005883a 	mov	r2,zero
    3320:	dc800d15 	stw	r18,52(sp)
    3324:	dd800e15 	stw	r22,56(sp)
    3328:	ddc00b15 	stw	r23,44(sp)
    332c:	dd400f15 	stw	r21,60(sp)
    3330:	ddc00c17 	ldw	r23,48(sp)
    3334:	402d883a 	mov	r22,r8
    3338:	dc000c15 	stw	r16,48(sp)
    333c:	2025883a 	mov	r18,r4
    3340:	2827883a 	mov	r19,r5
    3344:	102b883a 	mov	r21,r2
    3348:	00002606 	br	33e4 <_dtoa_r+0x644>
    334c:	ad400044 	addi	r21,r21,1
    3350:	adc4460e 	bge	r21,r23,446c <_dtoa_r+0x16cc>
    3354:	9009883a 	mov	r4,r18
    3358:	980b883a 	mov	r5,r19
    335c:	000d883a 	mov	r6,zero
    3360:	01d00934 	movhi	r7,16420
    3364:	000c5300 	call	c530 <__muldf3>
    3368:	000d883a 	mov	r6,zero
    336c:	01d00934 	movhi	r7,16420
    3370:	a009883a 	mov	r4,r20
    3374:	880b883a 	mov	r5,r17
    3378:	1025883a 	mov	r18,r2
    337c:	1827883a 	mov	r19,r3
    3380:	000c5300 	call	c530 <__muldf3>
    3384:	180b883a 	mov	r5,r3
    3388:	1009883a 	mov	r4,r2
    338c:	1823883a 	mov	r17,r3
    3390:	1029883a 	mov	r20,r2
    3394:	000d7280 	call	d728 <__fixdfsi>
    3398:	1009883a 	mov	r4,r2
    339c:	1021883a 	mov	r16,r2
    33a0:	000d7a80 	call	d7a8 <__floatsidf>
    33a4:	a009883a 	mov	r4,r20
    33a8:	880b883a 	mov	r5,r17
    33ac:	100d883a 	mov	r6,r2
    33b0:	180f883a 	mov	r7,r3
    33b4:	000cd380 	call	cd38 <__subdf3>
    33b8:	b5800044 	addi	r22,r22,1
    33bc:	82000c04 	addi	r8,r16,48
    33c0:	b23fffc5 	stb	r8,-1(r22)
    33c4:	900d883a 	mov	r6,r18
    33c8:	980f883a 	mov	r7,r19
    33cc:	1009883a 	mov	r4,r2
    33d0:	180b883a 	mov	r5,r3
    33d4:	1029883a 	mov	r20,r2
    33d8:	1823883a 	mov	r17,r3
    33dc:	000c4380 	call	c438 <__ledf2>
    33e0:	10041e16 	blt	r2,zero,445c <_dtoa_r+0x16bc>
    33e4:	a00d883a 	mov	r6,r20
    33e8:	880f883a 	mov	r7,r17
    33ec:	0009883a 	mov	r4,zero
    33f0:	014ffc34 	movhi	r5,16368
    33f4:	000cd380 	call	cd38 <__subdf3>
    33f8:	900d883a 	mov	r6,r18
    33fc:	980f883a 	mov	r7,r19
    3400:	1009883a 	mov	r4,r2
    3404:	180b883a 	mov	r5,r3
    3408:	000c4380 	call	c438 <__ledf2>
    340c:	103fcf0e 	bge	r2,zero,334c <_dtoa_r+0x5ac>
    3410:	d8801117 	ldw	r2,68(sp)
    3414:	b027883a 	mov	r19,r22
    3418:	ddc00b17 	ldw	r23,44(sp)
    341c:	dc000c17 	ldw	r16,48(sp)
    3420:	15800044 	addi	r22,r2,1
    3424:	00000106 	br	342c <_dtoa_r+0x68c>
    3428:	e4c3ed26 	beq	fp,r19,43e0 <_dtoa_r+0x1640>
    342c:	98ffffc3 	ldbu	r3,-1(r19)
    3430:	9811883a 	mov	r8,r19
    3434:	9cffffc4 	addi	r19,r19,-1
    3438:	18803fcc 	andi	r2,r3,255
    343c:	1080201c 	xori	r2,r2,128
    3440:	10bfe004 	addi	r2,r2,-128
    3444:	10800e60 	cmpeqi	r2,r2,57
    3448:	103ff71e 	bne	r2,zero,3428 <_dtoa_r+0x688>
    344c:	18c00044 	addi	r3,r3,1
    3450:	98c00005 	stb	r3,0(r19)
    3454:	b02b883a 	mov	r21,r22
    3458:	00015a06 	br	39c4 <_dtoa_r+0xc24>
    345c:	00a00034 	movhi	r2,32768
    3460:	10bfffc4 	addi	r2,r2,-1
    3464:	90aa703a 	and	r21,r18,r2
    3468:	a825883a 	mov	r18,r21
    346c:	00800044 	movi	r2,1
    3470:	88800015 	stw	r2,0(r17)
    3474:	00dffc34 	movhi	r3,32752
    3478:	909ffc2c 	andhi	r2,r18,32752
    347c:	10fe681e 	bne	r2,r3,2e20 <_dtoa_r+0x80>
    3480:	d9002017 	ldw	r4,128(sp)
    3484:	00c9c3c4 	movi	r3,9999
    3488:	00800434 	movhi	r2,16
    348c:	20c00015 	stw	r3,0(r4)
    3490:	d8c00217 	ldw	r3,8(sp)
    3494:	10bfffc4 	addi	r2,r2,-1
    3498:	9084703a 	and	r2,r18,r2
    349c:	10c4b03a 	or	r2,r2,r3
    34a0:	1000121e 	bne	r2,zero,34ec <_dtoa_r+0x74c>
    34a4:	d8802217 	ldw	r2,136(sp)
    34a8:	07000074 	movhi	fp,1
    34ac:	10041e26 	beq	r2,zero,4528 <_dtoa_r+0x1788>
    34b0:	00800074 	movhi	r2,1
    34b4:	e7018104 	addi	fp,fp,1540
    34b8:	10818304 	addi	r2,r2,1548
    34bc:	d8c02217 	ldw	r3,136(sp)
    34c0:	18800015 	stw	r2,0(r3)
    34c4:	003e6706 	br	2e64 <_dtoa_r+0xc4>
    34c8:	01400434 	movhi	r5,16
    34cc:	297fffc4 	addi	r5,r5,-1
    34d0:	a94a703a 	and	r5,r21,r5
    34d4:	dd001317 	ldw	r20,76(sp)
    34d8:	9809883a 	mov	r4,r19
    34dc:	294ffc34 	orhi	r5,r5,16368
    34e0:	8c7f0044 	addi	r17,r17,-1023
    34e4:	d8000915 	stw	zero,36(sp)
    34e8:	003e8a06 	br	2f14 <_dtoa_r+0x174>
    34ec:	d8802217 	ldw	r2,136(sp)
    34f0:	07000074 	movhi	fp,1
    34f4:	10023c1e 	bne	r2,zero,3de8 <_dtoa_r+0x1048>
    34f8:	e7018404 	addi	fp,fp,1552
    34fc:	003e5906 	br	2e64 <_dtoa_r+0xc4>
    3500:	9809883a 	mov	r4,r19
    3504:	000d7a80 	call	d7a8 <__floatsidf>
    3508:	880d883a 	mov	r6,r17
    350c:	a00f883a 	mov	r7,r20
    3510:	1009883a 	mov	r4,r2
    3514:	180b883a 	mov	r5,r3
    3518:	000c5300 	call	c530 <__muldf3>
    351c:	000d883a 	mov	r6,zero
    3520:	01d00734 	movhi	r7,16412
    3524:	1009883a 	mov	r4,r2
    3528:	180b883a 	mov	r5,r3
    352c:	000b0b80 	call	b0b8 <__adddf3>
    3530:	d8800b15 	stw	r2,44(sp)
    3534:	00bf3034 	movhi	r2,64704
    3538:	18a7883a 	add	r19,r3,r2
    353c:	8809883a 	mov	r4,r17
    3540:	a00b883a 	mov	r5,r20
    3544:	000d883a 	mov	r6,zero
    3548:	01d00534 	movhi	r7,16404
    354c:	000cd380 	call	cd38 <__subdf3>
    3550:	d9800b17 	ldw	r6,44(sp)
    3554:	980f883a 	mov	r7,r19
    3558:	1009883a 	mov	r4,r2
    355c:	180b883a 	mov	r5,r3
    3560:	1029883a 	mov	r20,r2
    3564:	1823883a 	mov	r17,r3
    3568:	000c33c0 	call	c33c <__gedf2>
    356c:	0083a716 	blt	zero,r2,440c <_dtoa_r+0x166c>
    3570:	d9800b17 	ldw	r6,44(sp)
    3574:	99e0003c 	xorhi	r7,r19,32768
    3578:	a009883a 	mov	r4,r20
    357c:	880b883a 	mov	r5,r17
    3580:	000c4380 	call	c438 <__ledf2>
    3584:	10001d16 	blt	r2,zero,35fc <_dtoa_r+0x85c>
    3588:	d8801417 	ldw	r2,80(sp)
    358c:	10008816 	blt	r2,zero,37b0 <_dtoa_r+0xa10>
    3590:	d8c00617 	ldw	r3,24(sp)
    3594:	18c003d0 	cmplti	r3,r3,15
    3598:	18008526 	beq	r3,zero,37b0 <_dtoa_r+0xa10>
    359c:	02c00074 	movhi	r11,1
    35a0:	5ac1c104 	addi	r11,r11,1796
    35a4:	d8800617 	ldw	r2,24(sp)
    35a8:	100490fa 	slli	r2,r2,3
    35ac:	5885883a 	add	r2,r11,r2
    35b0:	10c00017 	ldw	r3,0(r2)
    35b4:	10800117 	ldw	r2,4(r2)
    35b8:	d8c00115 	stw	r3,4(sp)
    35bc:	d8800315 	stw	r2,12(sp)
    35c0:	d8801f17 	ldw	r2,124(sp)
    35c4:	1000130e 	bge	r2,zero,3614 <_dtoa_r+0x874>
    35c8:	04801216 	blt	zero,r18,3614 <_dtoa_r+0x874>
    35cc:	90000b1e 	bne	r18,zero,35fc <_dtoa_r+0x85c>
    35d0:	d9000117 	ldw	r4,4(sp)
    35d4:	d9400317 	ldw	r5,12(sp)
    35d8:	000d883a 	mov	r6,zero
    35dc:	01d00534 	movhi	r7,16404
    35e0:	000c5300 	call	c530 <__muldf3>
    35e4:	d9000217 	ldw	r4,8(sp)
    35e8:	100d883a 	mov	r6,r2
    35ec:	180f883a 	mov	r7,r3
    35f0:	a80b883a 	mov	r5,r21
    35f4:	000c4380 	call	c438 <__ledf2>
    35f8:	00838416 	blt	zero,r2,440c <_dtoa_r+0x166c>
    35fc:	e011883a 	mov	r8,fp
    3600:	d8000315 	stw	zero,12(sp)
    3604:	0023883a 	mov	r17,zero
    3608:	d8801f17 	ldw	r2,124(sp)
    360c:	00a4303a 	nor	r18,zero,r2
    3610:	0001da06 	br	3d7c <_dtoa_r+0xfdc>
    3614:	dcc00117 	ldw	r19,4(sp)
    3618:	dd000317 	ldw	r20,12(sp)
    361c:	dd800217 	ldw	r22,8(sp)
    3620:	980d883a 	mov	r6,r19
    3624:	a00f883a 	mov	r7,r20
    3628:	b009883a 	mov	r4,r22
    362c:	a80b883a 	mov	r5,r21
    3630:	000b9bc0 	call	b9bc <__divdf3>
    3634:	180b883a 	mov	r5,r3
    3638:	1009883a 	mov	r4,r2
    363c:	000d7280 	call	d728 <__fixdfsi>
    3640:	1009883a 	mov	r4,r2
    3644:	1023883a 	mov	r17,r2
    3648:	000d7a80 	call	d7a8 <__floatsidf>
    364c:	980d883a 	mov	r6,r19
    3650:	a00f883a 	mov	r7,r20
    3654:	1009883a 	mov	r4,r2
    3658:	180b883a 	mov	r5,r3
    365c:	000c5300 	call	c530 <__muldf3>
    3660:	100d883a 	mov	r6,r2
    3664:	b009883a 	mov	r4,r22
    3668:	a80b883a 	mov	r5,r21
    366c:	180f883a 	mov	r7,r3
    3670:	000cd380 	call	cd38 <__subdf3>
    3674:	89000c04 	addi	r4,r17,48
    3678:	e1000005 	stb	r4,0(fp)
    367c:	91800060 	cmpeqi	r6,r18,1
    3680:	1009883a 	mov	r4,r2
    3684:	180b883a 	mov	r5,r3
    3688:	e4c00044 	addi	r19,fp,1
    368c:	3002891e 	bne	r6,zero,40b4 <_dtoa_r+0x1314>
    3690:	ddc00215 	stw	r23,8(sp)
    3694:	05800044 	movi	r22,1
    3698:	ddc00117 	ldw	r23,4(sp)
    369c:	dc000415 	stw	r16,16(sp)
    36a0:	a023883a 	mov	r17,r20
    36a4:	00001c06 	br	3718 <_dtoa_r+0x978>
    36a8:	b80d883a 	mov	r6,r23
    36ac:	880f883a 	mov	r7,r17
    36b0:	a809883a 	mov	r4,r21
    36b4:	a00b883a 	mov	r5,r20
    36b8:	000b9bc0 	call	b9bc <__divdf3>
    36bc:	180b883a 	mov	r5,r3
    36c0:	1009883a 	mov	r4,r2
    36c4:	000d7280 	call	d728 <__fixdfsi>
    36c8:	1009883a 	mov	r4,r2
    36cc:	1021883a 	mov	r16,r2
    36d0:	000d7a80 	call	d7a8 <__floatsidf>
    36d4:	b80d883a 	mov	r6,r23
    36d8:	880f883a 	mov	r7,r17
    36dc:	1009883a 	mov	r4,r2
    36e0:	180b883a 	mov	r5,r3
    36e4:	000c5300 	call	c530 <__muldf3>
    36e8:	a809883a 	mov	r4,r21
    36ec:	a00b883a 	mov	r5,r20
    36f0:	100d883a 	mov	r6,r2
    36f4:	180f883a 	mov	r7,r3
    36f8:	000cd380 	call	cd38 <__subdf3>
    36fc:	81000c04 	addi	r4,r16,48
    3700:	99000005 	stb	r4,0(r19)
    3704:	b5800044 	addi	r22,r22,1
    3708:	9cc00044 	addi	r19,r19,1
    370c:	1009883a 	mov	r4,r2
    3710:	180b883a 	mov	r5,r3
    3714:	b4826426 	beq	r22,r18,40a8 <_dtoa_r+0x1308>
    3718:	000d883a 	mov	r6,zero
    371c:	01d00934 	movhi	r7,16420
    3720:	000c5300 	call	c530 <__muldf3>
    3724:	000d883a 	mov	r6,zero
    3728:	000f883a 	mov	r7,zero
    372c:	1009883a 	mov	r4,r2
    3730:	180b883a 	mov	r5,r3
    3734:	102b883a 	mov	r21,r2
    3738:	1829883a 	mov	r20,r3
    373c:	000c2a80 	call	c2a8 <__eqdf2>
    3740:	103fd91e 	bne	r2,zero,36a8 <_dtoa_r+0x908>
    3744:	d8800617 	ldw	r2,24(sp)
    3748:	ddc00217 	ldw	r23,8(sp)
    374c:	dc000417 	ldw	r16,16(sp)
    3750:	15400044 	addi	r21,r2,1
    3754:	9811883a 	mov	r8,r19
    3758:	00009a06 	br	39c4 <_dtoa_r+0xc24>
    375c:	0502120e 	bge	zero,r20,3fa8 <_dtoa_r+0x1208>
    3760:	d8000815 	stw	zero,32(sp)
    3764:	d8000515 	stw	zero,20(sp)
    3768:	d8800417 	ldw	r2,16(sp)
    376c:	d8c00117 	ldw	r3,4(sp)
    3770:	dd800615 	stw	r22,24(sp)
    3774:	1585883a 	add	r2,r2,r22
    3778:	d8800415 	stw	r2,16(sp)
    377c:	d8000315 	stw	zero,12(sp)
    3780:	188002a8 	cmpgeui	r2,r3,10
    3784:	103e2f26 	beq	r2,zero,3044 <_dtoa_r+0x2a4>
    3788:	00800044 	movi	r2,1
    378c:	04400044 	movi	r17,1
    3790:	d8000115 	stw	zero,4(sp)
    3794:	d8800715 	stw	r2,28(sp)
    3798:	04bfffc4 	movi	r18,-1
    379c:	d8001f15 	stw	zero,124(sp)
    37a0:	80001115 	stw	zero,68(r16)
    37a4:	dc800a15 	stw	r18,40(sp)
    37a8:	000b883a 	mov	r5,zero
    37ac:	003e4606 	br	30c8 <_dtoa_r+0x328>
    37b0:	d8c00717 	ldw	r3,28(sp)
    37b4:	1800b41e 	bne	r3,zero,3a88 <_dtoa_r+0xce8>
    37b8:	dd000317 	ldw	r20,12(sp)
    37bc:	dcc00517 	ldw	r19,20(sp)
    37c0:	d8000715 	stw	zero,28(sp)
    37c4:	0023883a 	mov	r17,zero
    37c8:	98000b26 	beq	r19,zero,37f8 <_dtoa_r+0xa58>
    37cc:	d8c00417 	ldw	r3,16(sp)
    37d0:	00c0090e 	bge	zero,r3,37f8 <_dtoa_r+0xa58>
    37d4:	9805883a 	mov	r2,r19
    37d8:	1cc1ab16 	blt	r3,r19,3e88 <_dtoa_r+0x10e8>
    37dc:	d8c00517 	ldw	r3,20(sp)
    37e0:	98a7c83a 	sub	r19,r19,r2
    37e4:	1887c83a 	sub	r3,r3,r2
    37e8:	d8c00515 	stw	r3,20(sp)
    37ec:	d8c00417 	ldw	r3,16(sp)
    37f0:	1885c83a 	sub	r2,r3,r2
    37f4:	d8800415 	stw	r2,16(sp)
    37f8:	d8800317 	ldw	r2,12(sp)
    37fc:	10000826 	beq	r2,zero,3820 <_dtoa_r+0xa80>
    3800:	d8800717 	ldw	r2,28(sp)
    3804:	10000126 	beq	r2,zero,380c <_dtoa_r+0xa6c>
    3808:	a0025a1e 	bne	r20,zero,4174 <_dtoa_r+0x13d4>
    380c:	d9800317 	ldw	r6,12(sp)
    3810:	b80b883a 	mov	r5,r23
    3814:	8009883a 	mov	r4,r16
    3818:	0006c640 	call	6c64 <__pow5mult>
    381c:	102f883a 	mov	r23,r2
    3820:	01400044 	movi	r5,1
    3824:	8009883a 	mov	r4,r16
    3828:	00068f00 	call	68f0 <__i2b>
    382c:	d8800315 	stw	r2,12(sp)
    3830:	b0015a1e 	bne	r22,zero,3d9c <_dtoa_r+0xffc>
    3834:	d8800117 	ldw	r2,4(sp)
    3838:	10800090 	cmplti	r2,r2,2
    383c:	1001751e 	bne	r2,zero,3e14 <_dtoa_r+0x1074>
    3840:	00800044 	movi	r2,1
    3844:	d9400417 	ldw	r5,16(sp)
    3848:	1145883a 	add	r2,r2,r5
    384c:	108007cc 	andi	r2,r2,31
    3850:	10009826 	beq	r2,zero,3ab4 <_dtoa_r+0xd14>
    3854:	00c00804 	movi	r3,32
    3858:	1887c83a 	sub	r3,r3,r2
    385c:	19000150 	cmplti	r4,r3,5
    3860:	20017e1e 	bne	r4,zero,3e5c <_dtoa_r+0x10bc>
    3864:	00c00704 	movi	r3,28
    3868:	1885c83a 	sub	r2,r3,r2
    386c:	d8c00517 	ldw	r3,20(sp)
    3870:	98a7883a 	add	r19,r19,r2
    3874:	1887883a 	add	r3,r3,r2
    3878:	2885883a 	add	r2,r5,r2
    387c:	d8c00515 	stw	r3,20(sp)
    3880:	d8800415 	stw	r2,16(sp)
    3884:	d8800517 	ldw	r2,20(sp)
    3888:	0080050e 	bge	zero,r2,38a0 <_dtoa_r+0xb00>
    388c:	b80b883a 	mov	r5,r23
    3890:	100d883a 	mov	r6,r2
    3894:	8009883a 	mov	r4,r16
    3898:	0006da40 	call	6da4 <__lshift>
    389c:	102f883a 	mov	r23,r2
    38a0:	d8800417 	ldw	r2,16(sp)
    38a4:	0080050e 	bge	zero,r2,38bc <_dtoa_r+0xb1c>
    38a8:	d9400317 	ldw	r5,12(sp)
    38ac:	100d883a 	mov	r6,r2
    38b0:	8009883a 	mov	r4,r16
    38b4:	0006da40 	call	6da4 <__lshift>
    38b8:	d8800315 	stw	r2,12(sp)
    38bc:	d8800817 	ldw	r2,32(sp)
    38c0:	10004c1e 	bne	r2,zero,39f4 <_dtoa_r+0xc54>
    38c4:	04811a0e 	bge	zero,r18,3d30 <_dtoa_r+0xf90>
    38c8:	d8800717 	ldw	r2,28(sp)
    38cc:	1000a11e 	bne	r2,zero,3b54 <_dtoa_r+0xdb4>
    38d0:	d8800617 	ldw	r2,24(sp)
    38d4:	15400044 	addi	r21,r2,1
    38d8:	dd800317 	ldw	r22,12(sp)
    38dc:	04c00044 	movi	r19,1
    38e0:	00000706 	br	3900 <_dtoa_r+0xb60>
    38e4:	b80b883a 	mov	r5,r23
    38e8:	000f883a 	mov	r7,zero
    38ec:	01800284 	movi	r6,10
    38f0:	8009883a 	mov	r4,r16
    38f4:	00065400 	call	6540 <__multadd>
    38f8:	102f883a 	mov	r23,r2
    38fc:	9cc00044 	addi	r19,r19,1
    3900:	b00b883a 	mov	r5,r22
    3904:	b809883a 	mov	r4,r23
    3908:	0002b880 	call	2b88 <quorem>
    390c:	15000c04 	addi	r20,r2,48
    3910:	e4c5883a 	add	r2,fp,r19
    3914:	153fffc5 	stb	r20,-1(r2)
    3918:	9cbff216 	blt	r19,r18,38e4 <_dtoa_r+0xb44>
    391c:	04800116 	blt	zero,r18,3924 <_dtoa_r+0xb84>
    3920:	04800044 	movi	r18,1
    3924:	e4a5883a 	add	r18,fp,r18
    3928:	d8000215 	stw	zero,8(sp)
    392c:	b80b883a 	mov	r5,r23
    3930:	8009883a 	mov	r4,r16
    3934:	01800044 	movi	r6,1
    3938:	0006da40 	call	6da4 <__lshift>
    393c:	d9400317 	ldw	r5,12(sp)
    3940:	1009883a 	mov	r4,r2
    3944:	102f883a 	mov	r23,r2
    3948:	0006f2c0 	call	6f2c <__mcmp>
    394c:	00800216 	blt	zero,r2,3958 <_dtoa_r+0xbb8>
    3950:	00017c06 	br	3f44 <_dtoa_r+0x11a4>
    3954:	e4819026 	beq	fp,r18,3f98 <_dtoa_r+0x11f8>
    3958:	90ffffc3 	ldbu	r3,-1(r18)
    395c:	9011883a 	mov	r8,r18
    3960:	94bfffc4 	addi	r18,r18,-1
    3964:	18803fcc 	andi	r2,r3,255
    3968:	1080201c 	xori	r2,r2,128
    396c:	10bfe004 	addi	r2,r2,-128
    3970:	10800e60 	cmpeqi	r2,r2,57
    3974:	103ff71e 	bne	r2,zero,3954 <_dtoa_r+0xbb4>
    3978:	18c00044 	addi	r3,r3,1
    397c:	90c00005 	stb	r3,0(r18)
    3980:	d9400317 	ldw	r5,12(sp)
    3984:	8009883a 	mov	r4,r16
    3988:	da000115 	stw	r8,4(sp)
    398c:	000651c0 	call	651c <_Bfree>
    3990:	da000117 	ldw	r8,4(sp)
    3994:	88000b26 	beq	r17,zero,39c4 <_dtoa_r+0xc24>
    3998:	d9400217 	ldw	r5,8(sp)
    399c:	28000426 	beq	r5,zero,39b0 <_dtoa_r+0xc10>
    39a0:	2c400326 	beq	r5,r17,39b0 <_dtoa_r+0xc10>
    39a4:	8009883a 	mov	r4,r16
    39a8:	000651c0 	call	651c <_Bfree>
    39ac:	da000117 	ldw	r8,4(sp)
    39b0:	880b883a 	mov	r5,r17
    39b4:	8009883a 	mov	r4,r16
    39b8:	da000115 	stw	r8,4(sp)
    39bc:	000651c0 	call	651c <_Bfree>
    39c0:	da000117 	ldw	r8,4(sp)
    39c4:	b80b883a 	mov	r5,r23
    39c8:	8009883a 	mov	r4,r16
    39cc:	da000115 	stw	r8,4(sp)
    39d0:	000651c0 	call	651c <_Bfree>
    39d4:	da000117 	ldw	r8,4(sp)
    39d8:	d8802017 	ldw	r2,128(sp)
    39dc:	40000005 	stb	zero,0(r8)
    39e0:	15400015 	stw	r21,0(r2)
    39e4:	d8802217 	ldw	r2,136(sp)
    39e8:	103d1e26 	beq	r2,zero,2e64 <_dtoa_r+0xc4>
    39ec:	12000015 	stw	r8,0(r2)
    39f0:	003d1c06 	br	2e64 <_dtoa_r+0xc4>
    39f4:	d9400317 	ldw	r5,12(sp)
    39f8:	b809883a 	mov	r4,r23
    39fc:	0006f2c0 	call	6f2c <__mcmp>
    3a00:	103fb00e 	bge	r2,zero,38c4 <_dtoa_r+0xb24>
    3a04:	b80b883a 	mov	r5,r23
    3a08:	000f883a 	mov	r7,zero
    3a0c:	01800284 	movi	r6,10
    3a10:	8009883a 	mov	r4,r16
    3a14:	00065400 	call	6540 <__multadd>
    3a18:	d8c00617 	ldw	r3,24(sp)
    3a1c:	102f883a 	mov	r23,r2
    3a20:	d8800717 	ldw	r2,28(sp)
    3a24:	1d7fffc4 	addi	r21,r3,-1
    3a28:	1000411e 	bne	r2,zero,3b30 <_dtoa_r+0xd90>
    3a2c:	dc800a17 	ldw	r18,40(sp)
    3a30:	0482940e 	bge	zero,r18,4484 <_dtoa_r+0x16e4>
    3a34:	dd400617 	ldw	r21,24(sp)
    3a38:	003fa706 	br	38d8 <_dtoa_r+0xb38>
    3a3c:	00800044 	movi	r2,1
    3a40:	d8800815 	stw	r2,32(sp)
    3a44:	a0bfffc4 	addi	r2,r20,-1
    3a48:	103d720e 	bge	r2,zero,3014 <_dtoa_r+0x274>
    3a4c:	00800044 	movi	r2,1
    3a50:	1505c83a 	sub	r2,r2,r20
    3a54:	d8800515 	stw	r2,20(sp)
    3a58:	d8000415 	stw	zero,16(sp)
    3a5c:	003d6e06 	br	3018 <_dtoa_r+0x278>
    3a60:	b009883a 	mov	r4,r22
    3a64:	000d7a80 	call	d7a8 <__floatsidf>
    3a68:	980d883a 	mov	r6,r19
    3a6c:	900f883a 	mov	r7,r18
    3a70:	1009883a 	mov	r4,r2
    3a74:	180b883a 	mov	r5,r3
    3a78:	000c2a80 	call	c2a8 <__eqdf2>
    3a7c:	103d5226 	beq	r2,zero,2fc8 <_dtoa_r+0x228>
    3a80:	b5bfffc4 	addi	r22,r22,-1
    3a84:	003d5006 	br	2fc8 <_dtoa_r+0x228>
    3a88:	d8c00117 	ldw	r3,4(sp)
    3a8c:	18c00088 	cmpgei	r3,r3,2
    3a90:	18013526 	beq	r3,zero,3f68 <_dtoa_r+0x11c8>
    3a94:	d8800317 	ldw	r2,12(sp)
    3a98:	953fffc4 	addi	r20,r18,-1
    3a9c:	1500fc16 	blt	r2,r20,3e90 <_dtoa_r+0x10f0>
    3aa0:	1529c83a 	sub	r20,r2,r20
    3aa4:	d8800517 	ldw	r2,20(sp)
    3aa8:	9002620e 	bge	r18,zero,4434 <_dtoa_r+0x1694>
    3aac:	14a7c83a 	sub	r19,r2,r18
    3ab0:	00010306 	br	3ec0 <_dtoa_r+0x1120>
    3ab4:	00800704 	movi	r2,28
    3ab8:	d8c00517 	ldw	r3,20(sp)
    3abc:	98a7883a 	add	r19,r19,r2
    3ac0:	1887883a 	add	r3,r3,r2
    3ac4:	d8c00515 	stw	r3,20(sp)
    3ac8:	d8c00417 	ldw	r3,16(sp)
    3acc:	1885883a 	add	r2,r3,r2
    3ad0:	d8800415 	stw	r2,16(sp)
    3ad4:	003f6b06 	br	3884 <_dtoa_r+0xae4>
    3ad8:	d8c00117 	ldw	r3,4(sp)
    3adc:	188000e0 	cmpeqi	r2,r3,3
    3ae0:	1001151e 	bne	r2,zero,3f38 <_dtoa_r+0x1198>
    3ae4:	18800108 	cmpgei	r2,r3,4
    3ae8:	10000226 	beq	r2,zero,3af4 <_dtoa_r+0xd54>
    3aec:	04400044 	movi	r17,1
    3af0:	003d5d06 	br	3068 <_dtoa_r+0x2c8>
    3af4:	188000a0 	cmpeqi	r2,r3,2
    3af8:	10028d26 	beq	r2,zero,4530 <_dtoa_r+0x1790>
    3afc:	04400044 	movi	r17,1
    3b00:	d8000715 	stw	zero,28(sp)
    3b04:	d8801f17 	ldw	r2,124(sp)
    3b08:	0080be0e 	bge	zero,r2,3e04 <_dtoa_r+0x1064>
    3b0c:	d8800a15 	stw	r2,40(sp)
    3b10:	1025883a 	mov	r18,r2
    3b14:	100d883a 	mov	r6,r2
    3b18:	003d6106 	br	30a0 <_dtoa_r+0x300>
    3b1c:	01000804 	movi	r4,32
    3b20:	2089c83a 	sub	r4,r4,r2
    3b24:	d8800217 	ldw	r2,8(sp)
    3b28:	1108983a 	sll	r4,r2,r4
    3b2c:	003cf206 	br	2ef8 <_dtoa_r+0x158>
    3b30:	880b883a 	mov	r5,r17
    3b34:	000f883a 	mov	r7,zero
    3b38:	01800284 	movi	r6,10
    3b3c:	8009883a 	mov	r4,r16
    3b40:	00065400 	call	6540 <__multadd>
    3b44:	dc800a17 	ldw	r18,40(sp)
    3b48:	1023883a 	mov	r17,r2
    3b4c:	04825d0e 	bge	zero,r18,44c4 <_dtoa_r+0x1724>
    3b50:	dd400615 	stw	r21,24(sp)
    3b54:	04c0c616 	blt	zero,r19,3e70 <_dtoa_r+0x10d0>
    3b58:	b0016e1e 	bne	r22,zero,4114 <_dtoa_r+0x1374>
    3b5c:	8827883a 	mov	r19,r17
    3b60:	e0bfffc4 	addi	r2,fp,-1
    3b64:	1485883a 	add	r2,r2,r18
    3b68:	d8800515 	stw	r2,20(sp)
    3b6c:	d8800217 	ldw	r2,8(sp)
    3b70:	e02d883a 	mov	r22,fp
    3b74:	df000815 	stw	fp,32(sp)
    3b78:	1080004c 	andi	r2,r2,1
    3b7c:	d8800715 	stw	r2,28(sp)
    3b80:	dc800317 	ldw	r18,12(sp)
    3b84:	b809883a 	mov	r4,r23
    3b88:	900b883a 	mov	r5,r18
    3b8c:	0002b880 	call	2b88 <quorem>
    3b90:	880b883a 	mov	r5,r17
    3b94:	b809883a 	mov	r4,r23
    3b98:	102b883a 	mov	r21,r2
    3b9c:	0006f2c0 	call	6f2c <__mcmp>
    3ba0:	900b883a 	mov	r5,r18
    3ba4:	980d883a 	mov	r6,r19
    3ba8:	8009883a 	mov	r4,r16
    3bac:	1025883a 	mov	r18,r2
    3bb0:	0006f840 	call	6f84 <__mdiff>
    3bb4:	100b883a 	mov	r5,r2
    3bb8:	10800317 	ldw	r2,12(r2)
    3bbc:	af000c04 	addi	fp,r21,48
    3bc0:	1000261e 	bne	r2,zero,3c5c <_dtoa_r+0xebc>
    3bc4:	b809883a 	mov	r4,r23
    3bc8:	d9400415 	stw	r5,16(sp)
    3bcc:	0006f2c0 	call	6f2c <__mcmp>
    3bd0:	d9400417 	ldw	r5,16(sp)
    3bd4:	1029883a 	mov	r20,r2
    3bd8:	8009883a 	mov	r4,r16
    3bdc:	000651c0 	call	651c <_Bfree>
    3be0:	a000401e 	bne	r20,zero,3ce4 <_dtoa_r+0xf44>
    3be4:	d8800117 	ldw	r2,4(sp)
    3be8:	1000021e 	bne	r2,zero,3bf4 <_dtoa_r+0xe54>
    3bec:	d8800717 	ldw	r2,28(sp)
    3bf0:	1000cb26 	beq	r2,zero,3f20 <_dtoa_r+0x1180>
    3bf4:	90020816 	blt	r18,zero,4418 <_dtoa_r+0x1678>
    3bf8:	d8800517 	ldw	r2,20(sp)
    3bfc:	b7000005 	stb	fp,0(r22)
    3c00:	b4800044 	addi	r18,r22,1
    3c04:	15815426 	beq	r2,r22,4158 <_dtoa_r+0x13b8>
    3c08:	b80b883a 	mov	r5,r23
    3c0c:	000f883a 	mov	r7,zero
    3c10:	01800284 	movi	r6,10
    3c14:	8009883a 	mov	r4,r16
    3c18:	00065400 	call	6540 <__multadd>
    3c1c:	102f883a 	mov	r23,r2
    3c20:	880b883a 	mov	r5,r17
    3c24:	000f883a 	mov	r7,zero
    3c28:	01800284 	movi	r6,10
    3c2c:	8009883a 	mov	r4,r16
    3c30:	8cc02826 	beq	r17,r19,3cd4 <_dtoa_r+0xf34>
    3c34:	00065400 	call	6540 <__multadd>
    3c38:	980b883a 	mov	r5,r19
    3c3c:	000f883a 	mov	r7,zero
    3c40:	01800284 	movi	r6,10
    3c44:	8009883a 	mov	r4,r16
    3c48:	1023883a 	mov	r17,r2
    3c4c:	00065400 	call	6540 <__multadd>
    3c50:	1027883a 	mov	r19,r2
    3c54:	902d883a 	mov	r22,r18
    3c58:	003fc906 	br	3b80 <_dtoa_r+0xde0>
    3c5c:	8009883a 	mov	r4,r16
    3c60:	e029883a 	mov	r20,fp
    3c64:	df000817 	ldw	fp,32(sp)
    3c68:	000651c0 	call	651c <_Bfree>
    3c6c:	90000616 	blt	r18,zero,3c88 <_dtoa_r+0xee8>
    3c70:	d8800217 	ldw	r2,8(sp)
    3c74:	d8c00117 	ldw	r3,4(sp)
    3c78:	1080004c 	andi	r2,r2,1
    3c7c:	1ca4b03a 	or	r18,r3,r18
    3c80:	1484b03a 	or	r2,r2,r18
    3c84:	1000201e 	bne	r2,zero,3d08 <_dtoa_r+0xf68>
    3c88:	b80b883a 	mov	r5,r23
    3c8c:	8009883a 	mov	r4,r16
    3c90:	01800044 	movi	r6,1
    3c94:	0006da40 	call	6da4 <__lshift>
    3c98:	d9400317 	ldw	r5,12(sp)
    3c9c:	1009883a 	mov	r4,r2
    3ca0:	102f883a 	mov	r23,r2
    3ca4:	0006f2c0 	call	6f2c <__mcmp>
    3ca8:	0080990e 	bge	zero,r2,3f10 <_dtoa_r+0x1170>
    3cac:	a0c00e60 	cmpeqi	r3,r20,57
    3cb0:	1801ce1e 	bne	r3,zero,43ec <_dtoa_r+0x164c>
    3cb4:	ad000c44 	addi	r20,r21,49
    3cb8:	d8800617 	ldw	r2,24(sp)
    3cbc:	dc400215 	stw	r17,8(sp)
    3cc0:	b2000044 	addi	r8,r22,1
    3cc4:	b5000005 	stb	r20,0(r22)
    3cc8:	15400044 	addi	r21,r2,1
    3ccc:	9823883a 	mov	r17,r19
    3cd0:	003f2b06 	br	3980 <_dtoa_r+0xbe0>
    3cd4:	00065400 	call	6540 <__multadd>
    3cd8:	1023883a 	mov	r17,r2
    3cdc:	1027883a 	mov	r19,r2
    3ce0:	003fdc06 	br	3c54 <_dtoa_r+0xeb4>
    3ce4:	90022316 	blt	r18,zero,4574 <_dtoa_r+0x17d4>
    3ce8:	d8800117 	ldw	r2,4(sp)
    3cec:	14a4b03a 	or	r18,r2,r18
    3cf0:	d8800717 	ldw	r2,28(sp)
    3cf4:	14a4b03a 	or	r18,r2,r18
    3cf8:	90021e26 	beq	r18,zero,4574 <_dtoa_r+0x17d4>
    3cfc:	053fbe0e 	bge	zero,r20,3bf8 <_dtoa_r+0xe58>
    3d00:	e029883a 	mov	r20,fp
    3d04:	df000817 	ldw	fp,32(sp)
    3d08:	a0800e60 	cmpeqi	r2,r20,57
    3d0c:	1001b71e 	bne	r2,zero,43ec <_dtoa_r+0x164c>
    3d10:	d8800617 	ldw	r2,24(sp)
    3d14:	a0c00044 	addi	r3,r20,1
    3d18:	dc400215 	stw	r17,8(sp)
    3d1c:	b2000044 	addi	r8,r22,1
    3d20:	15400044 	addi	r21,r2,1
    3d24:	b0c00005 	stb	r3,0(r22)
    3d28:	9823883a 	mov	r17,r19
    3d2c:	003f1406 	br	3980 <_dtoa_r+0xbe0>
    3d30:	d8800117 	ldw	r2,4(sp)
    3d34:	108000d0 	cmplti	r2,r2,3
    3d38:	103ee31e 	bne	r2,zero,38c8 <_dtoa_r+0xb28>
    3d3c:	9000d81e 	bne	r18,zero,40a0 <_dtoa_r+0x1300>
    3d40:	d9400317 	ldw	r5,12(sp)
    3d44:	8009883a 	mov	r4,r16
    3d48:	000f883a 	mov	r7,zero
    3d4c:	01800144 	movi	r6,5
    3d50:	00065400 	call	6540 <__multadd>
    3d54:	100b883a 	mov	r5,r2
    3d58:	b809883a 	mov	r4,r23
    3d5c:	d8800315 	stw	r2,12(sp)
    3d60:	0006f2c0 	call	6f2c <__mcmp>
    3d64:	0080ce0e 	bge	zero,r2,40a0 <_dtoa_r+0x1300>
    3d68:	00800c44 	movi	r2,49
    3d6c:	e0800005 	stb	r2,0(fp)
    3d70:	d8800617 	ldw	r2,24(sp)
    3d74:	e2000044 	addi	r8,fp,1
    3d78:	14800044 	addi	r18,r2,1
    3d7c:	d9400317 	ldw	r5,12(sp)
    3d80:	8009883a 	mov	r4,r16
    3d84:	da000115 	stw	r8,4(sp)
    3d88:	000651c0 	call	651c <_Bfree>
    3d8c:	da000117 	ldw	r8,4(sp)
    3d90:	95400044 	addi	r21,r18,1
    3d94:	883f061e 	bne	r17,zero,39b0 <_dtoa_r+0xc10>
    3d98:	003f0a06 	br	39c4 <_dtoa_r+0xc24>
    3d9c:	100b883a 	mov	r5,r2
    3da0:	b00d883a 	mov	r6,r22
    3da4:	8009883a 	mov	r4,r16
    3da8:	0006c640 	call	6c64 <__pow5mult>
    3dac:	d8c00117 	ldw	r3,4(sp)
    3db0:	d8800315 	stw	r2,12(sp)
    3db4:	18c00090 	cmplti	r3,r3,2
    3db8:	1800461e 	bne	r3,zero,3ed4 <_dtoa_r+0x1134>
    3dbc:	002d883a 	mov	r22,zero
    3dc0:	d8c00317 	ldw	r3,12(sp)
    3dc4:	18800417 	ldw	r2,16(r3)
    3dc8:	10800104 	addi	r2,r2,4
    3dcc:	100490ba 	slli	r2,r2,2
    3dd0:	1885883a 	add	r2,r3,r2
    3dd4:	11000017 	ldw	r4,0(r2)
    3dd8:	00067cc0 	call	67cc <__hi0bits>
    3ddc:	00c00804 	movi	r3,32
    3de0:	1885c83a 	sub	r2,r3,r2
    3de4:	003e9706 	br	3844 <_dtoa_r+0xaa4>
    3de8:	00800074 	movhi	r2,1
    3dec:	e7018404 	addi	fp,fp,1552
    3df0:	108184c4 	addi	r2,r2,1555
    3df4:	003db106 	br	34bc <_dtoa_r+0x71c>
    3df8:	00800044 	movi	r2,1
    3dfc:	d8800715 	stw	r2,28(sp)
    3e00:	003f4006 	br	3b04 <_dtoa_r+0xd64>
    3e04:	00800044 	movi	r2,1
    3e08:	04800044 	movi	r18,1
    3e0c:	d8801f15 	stw	r2,124(sp)
    3e10:	003e6306 	br	37a0 <_dtoa_r+0xa00>
    3e14:	d8800217 	ldw	r2,8(sp)
    3e18:	103e891e 	bne	r2,zero,3840 <_dtoa_r+0xaa0>
    3e1c:	00800434 	movhi	r2,16
    3e20:	10bfffc4 	addi	r2,r2,-1
    3e24:	a884703a 	and	r2,r21,r2
    3e28:	103e851e 	bne	r2,zero,3840 <_dtoa_r+0xaa0>
    3e2c:	a89ffc2c 	andhi	r2,r21,32752
    3e30:	10017c26 	beq	r2,zero,4424 <_dtoa_r+0x1684>
    3e34:	d8800517 	ldw	r2,20(sp)
    3e38:	10800044 	addi	r2,r2,1
    3e3c:	d8800515 	stw	r2,20(sp)
    3e40:	d8800417 	ldw	r2,16(sp)
    3e44:	10800044 	addi	r2,r2,1
    3e48:	d8800415 	stw	r2,16(sp)
    3e4c:	00800044 	movi	r2,1
    3e50:	b001761e 	bne	r22,zero,442c <_dtoa_r+0x168c>
    3e54:	102d883a 	mov	r22,r2
    3e58:	003e7906 	br	3840 <_dtoa_r+0xaa0>
    3e5c:	18c00120 	cmpeqi	r3,r3,4
    3e60:	183e881e 	bne	r3,zero,3884 <_dtoa_r+0xae4>
    3e64:	00c00f04 	movi	r3,60
    3e68:	1885c83a 	sub	r2,r3,r2
    3e6c:	003f1206 	br	3ab8 <_dtoa_r+0xd18>
    3e70:	880b883a 	mov	r5,r17
    3e74:	980d883a 	mov	r6,r19
    3e78:	8009883a 	mov	r4,r16
    3e7c:	0006da40 	call	6da4 <__lshift>
    3e80:	1023883a 	mov	r17,r2
    3e84:	003f3406 	br	3b58 <_dtoa_r+0xdb8>
    3e88:	1805883a 	mov	r2,r3
    3e8c:	003e5306 	br	37dc <_dtoa_r+0xa3c>
    3e90:	d8800317 	ldw	r2,12(sp)
    3e94:	d8c00517 	ldw	r3,20(sp)
    3e98:	dd000315 	stw	r20,12(sp)
    3e9c:	a085c83a 	sub	r2,r20,r2
    3ea0:	b0ad883a 	add	r22,r22,r2
    3ea4:	d8800417 	ldw	r2,16(sp)
    3ea8:	1827883a 	mov	r19,r3
    3eac:	0029883a 	mov	r20,zero
    3eb0:	1485883a 	add	r2,r2,r18
    3eb4:	d8800415 	stw	r2,16(sp)
    3eb8:	1c85883a 	add	r2,r3,r18
    3ebc:	d8800515 	stw	r2,20(sp)
    3ec0:	01400044 	movi	r5,1
    3ec4:	8009883a 	mov	r4,r16
    3ec8:	00068f00 	call	68f0 <__i2b>
    3ecc:	1023883a 	mov	r17,r2
    3ed0:	003e3d06 	br	37c8 <_dtoa_r+0xa28>
    3ed4:	d8800217 	ldw	r2,8(sp)
    3ed8:	103fb81e 	bne	r2,zero,3dbc <_dtoa_r+0x101c>
    3edc:	00800434 	movhi	r2,16
    3ee0:	10bfffc4 	addi	r2,r2,-1
    3ee4:	a884703a 	and	r2,r21,r2
    3ee8:	103fb41e 	bne	r2,zero,3dbc <_dtoa_r+0x101c>
    3eec:	003fcf06 	br	3e2c <_dtoa_r+0x108c>
    3ef0:	d9000217 	ldw	r4,8(sp)
    3ef4:	a80b883a 	mov	r5,r21
    3ef8:	04c00084 	movi	r19,2
    3efc:	003c9506 	br	3154 <_dtoa_r+0x3b4>
    3f00:	00800084 	movi	r2,2
    3f04:	d8800115 	stw	r2,4(sp)
    3f08:	d8000715 	stw	zero,28(sp)
    3f0c:	003efd06 	br	3b04 <_dtoa_r+0xd64>
    3f10:	103f691e 	bne	r2,zero,3cb8 <_dtoa_r+0xf18>
    3f14:	a080004c 	andi	r2,r20,1
    3f18:	103f641e 	bne	r2,zero,3cac <_dtoa_r+0xf0c>
    3f1c:	003f6606 	br	3cb8 <_dtoa_r+0xf18>
    3f20:	e029883a 	mov	r20,fp
    3f24:	a0800e60 	cmpeqi	r2,r20,57
    3f28:	df000817 	ldw	fp,32(sp)
    3f2c:	10012f1e 	bne	r2,zero,43ec <_dtoa_r+0x164c>
    3f30:	04bf6016 	blt	zero,r18,3cb4 <_dtoa_r+0xf14>
    3f34:	003f6006 	br	3cb8 <_dtoa_r+0xf18>
    3f38:	04400044 	movi	r17,1
    3f3c:	d8000715 	stw	zero,28(sp)
    3f40:	003c5006 	br	3084 <_dtoa_r+0x2e4>
    3f44:	1000021e 	bne	r2,zero,3f50 <_dtoa_r+0x11b0>
    3f48:	a0c0004c 	andi	r3,r20,1
    3f4c:	183e821e 	bne	r3,zero,3958 <_dtoa_r+0xbb8>
    3f50:	90bfffc7 	ldb	r2,-1(r18)
    3f54:	9011883a 	mov	r8,r18
    3f58:	94bfffc4 	addi	r18,r18,-1
    3f5c:	10800c20 	cmpeqi	r2,r2,48
    3f60:	103ffb1e 	bne	r2,zero,3f50 <_dtoa_r+0x11b0>
    3f64:	003e8606 	br	3980 <_dtoa_r+0xbe0>
    3f68:	d8c00917 	ldw	r3,36(sp)
    3f6c:	18009526 	beq	r3,zero,41c4 <_dtoa_r+0x1424>
    3f70:	d8c00517 	ldw	r3,20(sp)
    3f74:	d9000417 	ldw	r4,16(sp)
    3f78:	10810cc4 	addi	r2,r2,1075
    3f7c:	dd000317 	ldw	r20,12(sp)
    3f80:	2089883a 	add	r4,r4,r2
    3f84:	1885883a 	add	r2,r3,r2
    3f88:	1827883a 	mov	r19,r3
    3f8c:	d9000415 	stw	r4,16(sp)
    3f90:	d8800515 	stw	r2,20(sp)
    3f94:	003fca06 	br	3ec0 <_dtoa_r+0x1120>
    3f98:	00800c44 	movi	r2,49
    3f9c:	e0800005 	stb	r2,0(fp)
    3fa0:	ad400044 	addi	r21,r21,1
    3fa4:	003e7606 	br	3980 <_dtoa_r+0xbe0>
    3fa8:	00800044 	movi	r2,1
    3fac:	1505c83a 	sub	r2,r2,r20
    3fb0:	d8800515 	stw	r2,20(sp)
    3fb4:	d8000415 	stw	zero,16(sp)
    3fb8:	d8000815 	stw	zero,32(sp)
    3fbc:	003dea06 	br	3768 <_dtoa_r+0x9c8>
    3fc0:	d8800617 	ldw	r2,24(sp)
    3fc4:	1000e326 	beq	r2,zero,4354 <_dtoa_r+0x15b4>
    3fc8:	0091c83a 	sub	r8,zero,r2
    3fcc:	408003cc 	andi	r2,r8,15
    3fd0:	100490fa 	slli	r2,r2,3
    3fd4:	02c00074 	movhi	r11,1
    3fd8:	5ac1c104 	addi	r11,r11,1796
    3fdc:	5885883a 	add	r2,r11,r2
    3fe0:	4011d13a 	srai	r8,r8,4
    3fe4:	11800017 	ldw	r6,0(r2)
    3fe8:	11c00117 	ldw	r7,4(r2)
    3fec:	d9000217 	ldw	r4,8(sp)
    3ff0:	a80b883a 	mov	r5,r21
    3ff4:	da000b15 	stw	r8,44(sp)
    3ff8:	000c5300 	call	c530 <__muldf3>
    3ffc:	da000b17 	ldw	r8,44(sp)
    4000:	40013726 	beq	r8,zero,44e0 <_dtoa_r+0x1740>
    4004:	02400074 	movhi	r9,1
    4008:	000b883a 	mov	r5,zero
    400c:	04c00084 	movi	r19,2
    4010:	4a41b704 	addi	r9,r9,1756
    4014:	dc800b15 	stw	r18,44(sp)
    4018:	1009883a 	mov	r4,r2
    401c:	9825883a 	mov	r18,r19
    4020:	d8800c15 	stw	r2,48(sp)
    4024:	8027883a 	mov	r19,r16
    4028:	2805883a 	mov	r2,r5
    402c:	1829883a 	mov	r20,r3
    4030:	4021883a 	mov	r16,r8
    4034:	4823883a 	mov	r17,r9
    4038:	180b883a 	mov	r5,r3
    403c:	8180004c 	andi	r6,r16,1
    4040:	30000726 	beq	r6,zero,4060 <_dtoa_r+0x12c0>
    4044:	89800017 	ldw	r6,0(r17)
    4048:	89c00117 	ldw	r7,4(r17)
    404c:	94800044 	addi	r18,r18,1
    4050:	000c5300 	call	c530 <__muldf3>
    4054:	1009883a 	mov	r4,r2
    4058:	180b883a 	mov	r5,r3
    405c:	00800044 	movi	r2,1
    4060:	8021d07a 	srai	r16,r16,1
    4064:	8c400204 	addi	r17,r17,8
    4068:	803ff41e 	bne	r16,zero,403c <_dtoa_r+0x129c>
    406c:	a007883a 	mov	r3,r20
    4070:	2829883a 	mov	r20,r5
    4074:	100b883a 	mov	r5,r2
    4078:	29403fcc 	andi	r5,r5,255
    407c:	9821883a 	mov	r16,r19
    4080:	d8800c17 	ldw	r2,48(sp)
    4084:	9027883a 	mov	r19,r18
    4088:	2023883a 	mov	r17,r4
    408c:	dc800b17 	ldw	r18,44(sp)
    4090:	283c521e 	bne	r5,zero,31dc <_dtoa_r+0x43c>
    4094:	1023883a 	mov	r17,r2
    4098:	1829883a 	mov	r20,r3
    409c:	003c4f06 	br	31dc <_dtoa_r+0x43c>
    40a0:	e011883a 	mov	r8,fp
    40a4:	003d5806 	br	3608 <_dtoa_r+0x868>
    40a8:	8023883a 	mov	r17,r16
    40ac:	ddc00217 	ldw	r23,8(sp)
    40b0:	dc000417 	ldw	r16,16(sp)
    40b4:	200d883a 	mov	r6,r4
    40b8:	280f883a 	mov	r7,r5
    40bc:	000b0b80 	call	b0b8 <__adddf3>
    40c0:	1009883a 	mov	r4,r2
    40c4:	d9800117 	ldw	r6,4(sp)
    40c8:	d9c00317 	ldw	r7,12(sp)
    40cc:	1029883a 	mov	r20,r2
    40d0:	d8800617 	ldw	r2,24(sp)
    40d4:	180b883a 	mov	r5,r3
    40d8:	1825883a 	mov	r18,r3
    40dc:	15400044 	addi	r21,r2,1
    40e0:	000c33c0 	call	c33c <__gedf2>
    40e4:	a82d883a 	mov	r22,r21
    40e8:	00bcd016 	blt	zero,r2,342c <_dtoa_r+0x68c>
    40ec:	d9800117 	ldw	r6,4(sp)
    40f0:	d9c00317 	ldw	r7,12(sp)
    40f4:	a009883a 	mov	r4,r20
    40f8:	900b883a 	mov	r5,r18
    40fc:	000c2a80 	call	c2a8 <__eqdf2>
    4100:	1000021e 	bne	r2,zero,410c <_dtoa_r+0x136c>
    4104:	8880004c 	andi	r2,r17,1
    4108:	103cc81e 	bne	r2,zero,342c <_dtoa_r+0x68c>
    410c:	9811883a 	mov	r8,r19
    4110:	003e2c06 	br	39c4 <_dtoa_r+0xc24>
    4114:	89400117 	ldw	r5,4(r17)
    4118:	8009883a 	mov	r4,r16
    411c:	00064780 	call	6478 <_Balloc>
    4120:	1027883a 	mov	r19,r2
    4124:	1000f226 	beq	r2,zero,44f0 <_dtoa_r+0x1750>
    4128:	89800417 	ldw	r6,16(r17)
    412c:	89400304 	addi	r5,r17,12
    4130:	11000304 	addi	r4,r2,12
    4134:	31800084 	addi	r6,r6,2
    4138:	300c90ba 	slli	r6,r6,2
    413c:	00061100 	call	6110 <memcpy>
    4140:	980b883a 	mov	r5,r19
    4144:	01800044 	movi	r6,1
    4148:	8009883a 	mov	r4,r16
    414c:	0006da40 	call	6da4 <__lshift>
    4150:	1027883a 	mov	r19,r2
    4154:	003e8206 	br	3b60 <_dtoa_r+0xdc0>
    4158:	d8800617 	ldw	r2,24(sp)
    415c:	e029883a 	mov	r20,fp
    4160:	dc400215 	stw	r17,8(sp)
    4164:	df000817 	ldw	fp,32(sp)
    4168:	15400044 	addi	r21,r2,1
    416c:	9823883a 	mov	r17,r19
    4170:	003dee06 	br	392c <_dtoa_r+0xb8c>
    4174:	880b883a 	mov	r5,r17
    4178:	a00d883a 	mov	r6,r20
    417c:	8009883a 	mov	r4,r16
    4180:	0006c640 	call	6c64 <__pow5mult>
    4184:	b80d883a 	mov	r6,r23
    4188:	100b883a 	mov	r5,r2
    418c:	8009883a 	mov	r4,r16
    4190:	1023883a 	mov	r17,r2
    4194:	00069a00 	call	69a0 <__multiply>
    4198:	d8800915 	stw	r2,36(sp)
    419c:	d8800317 	ldw	r2,12(sp)
    41a0:	b80b883a 	mov	r5,r23
    41a4:	8009883a 	mov	r4,r16
    41a8:	1529c83a 	sub	r20,r2,r20
    41ac:	dd000315 	stw	r20,12(sp)
    41b0:	000651c0 	call	651c <_Bfree>
    41b4:	d8800917 	ldw	r2,36(sp)
    41b8:	102f883a 	mov	r23,r2
    41bc:	a03d9826 	beq	r20,zero,3820 <_dtoa_r+0xa80>
    41c0:	003d9206 	br	380c <_dtoa_r+0xa6c>
    41c4:	d8c01317 	ldw	r3,76(sp)
    41c8:	00800d84 	movi	r2,54
    41cc:	d9000517 	ldw	r4,20(sp)
    41d0:	10c5c83a 	sub	r2,r2,r3
    41d4:	d8c00417 	ldw	r3,16(sp)
    41d8:	dd000317 	ldw	r20,12(sp)
    41dc:	2027883a 	mov	r19,r4
    41e0:	1887883a 	add	r3,r3,r2
    41e4:	2085883a 	add	r2,r4,r2
    41e8:	d8c00415 	stw	r3,16(sp)
    41ec:	d8800515 	stw	r2,20(sp)
    41f0:	003f3306 	br	3ec0 <_dtoa_r+0x1120>
    41f4:	d9000b17 	ldw	r4,44(sp)
    41f8:	d9800f17 	ldw	r6,60(sp)
    41fc:	d9c01017 	ldw	r7,64(sp)
    4200:	980b883a 	mov	r5,r19
    4204:	dac01215 	stw	r11,72(sp)
    4208:	da000d15 	stw	r8,52(sp)
    420c:	000c5300 	call	c530 <__muldf3>
    4210:	d9000e17 	ldw	r4,56(sp)
    4214:	d9400c17 	ldw	r5,48(sp)
    4218:	d8800715 	stw	r2,28(sp)
    421c:	e1000005 	stb	r4,0(fp)
    4220:	d8c00915 	stw	r3,36(sp)
    4224:	29000058 	cmpnei	r4,r5,1
    4228:	da000d17 	ldw	r8,52(sp)
    422c:	dac01217 	ldw	r11,72(sp)
    4230:	e167883a 	add	r19,fp,r5
    4234:	2000a126 	beq	r4,zero,44bc <_dtoa_r+0x171c>
    4238:	dc000c15 	stw	r16,48(sp)
    423c:	dc800b15 	stw	r18,44(sp)
    4240:	4021883a 	mov	r16,r8
    4244:	a009883a 	mov	r4,r20
    4248:	880b883a 	mov	r5,r17
    424c:	dac00d15 	stw	r11,52(sp)
    4250:	000d883a 	mov	r6,zero
    4254:	01d00934 	movhi	r7,16420
    4258:	000c5300 	call	c530 <__muldf3>
    425c:	180b883a 	mov	r5,r3
    4260:	1009883a 	mov	r4,r2
    4264:	1825883a 	mov	r18,r3
    4268:	1029883a 	mov	r20,r2
    426c:	000d7280 	call	d728 <__fixdfsi>
    4270:	1009883a 	mov	r4,r2
    4274:	1023883a 	mov	r17,r2
    4278:	000d7a80 	call	d7a8 <__floatsidf>
    427c:	a009883a 	mov	r4,r20
    4280:	900b883a 	mov	r5,r18
    4284:	100d883a 	mov	r6,r2
    4288:	180f883a 	mov	r7,r3
    428c:	84000044 	addi	r16,r16,1
    4290:	8c400c04 	addi	r17,r17,48
    4294:	000cd380 	call	cd38 <__subdf3>
    4298:	847fffc5 	stb	r17,-1(r16)
    429c:	1009883a 	mov	r4,r2
    42a0:	180b883a 	mov	r5,r3
    42a4:	9c3fea1e 	bne	r19,r16,4250 <_dtoa_r+0x14b0>
    42a8:	dc800b17 	ldw	r18,44(sp)
    42ac:	dc000c17 	ldw	r16,48(sp)
    42b0:	dac00d17 	ldw	r11,52(sp)
    42b4:	1029883a 	mov	r20,r2
    42b8:	1823883a 	mov	r17,r3
    42bc:	d9000717 	ldw	r4,28(sp)
    42c0:	d9400917 	ldw	r5,36(sp)
    42c4:	000d883a 	mov	r6,zero
    42c8:	01cff834 	movhi	r7,16352
    42cc:	dac00b15 	stw	r11,44(sp)
    42d0:	000b0b80 	call	b0b8 <__adddf3>
    42d4:	100d883a 	mov	r6,r2
    42d8:	180f883a 	mov	r7,r3
    42dc:	a009883a 	mov	r4,r20
    42e0:	880b883a 	mov	r5,r17
    42e4:	000c33c0 	call	c33c <__gedf2>
    42e8:	00805916 	blt	zero,r2,4450 <_dtoa_r+0x16b0>
    42ec:	d9800717 	ldw	r6,28(sp)
    42f0:	d9c00917 	ldw	r7,36(sp)
    42f4:	0009883a 	mov	r4,zero
    42f8:	014ff834 	movhi	r5,16352
    42fc:	000cd380 	call	cd38 <__subdf3>
    4300:	100d883a 	mov	r6,r2
    4304:	180f883a 	mov	r7,r3
    4308:	a009883a 	mov	r4,r20
    430c:	880b883a 	mov	r5,r17
    4310:	000c4380 	call	c438 <__ledf2>
    4314:	dac00b17 	ldw	r11,44(sp)
    4318:	10000616 	blt	r2,zero,4334 <_dtoa_r+0x1594>
    431c:	d8801417 	ldw	r2,80(sp)
    4320:	103d2516 	blt	r2,zero,37b8 <_dtoa_r+0xa18>
    4324:	d8800617 	ldw	r2,24(sp)
    4328:	108003c8 	cmpgei	r2,r2,15
    432c:	103d221e 	bne	r2,zero,37b8 <_dtoa_r+0xa18>
    4330:	003c9c06 	br	35a4 <_dtoa_r+0x804>
    4334:	98bfffc7 	ldb	r2,-1(r19)
    4338:	9811883a 	mov	r8,r19
    433c:	9cffffc4 	addi	r19,r19,-1
    4340:	10800c20 	cmpeqi	r2,r2,48
    4344:	103ffb1e 	bne	r2,zero,4334 <_dtoa_r+0x1594>
    4348:	d8801117 	ldw	r2,68(sp)
    434c:	15400044 	addi	r21,r2,1
    4350:	003d9c06 	br	39c4 <_dtoa_r+0xc24>
    4354:	dc400217 	ldw	r17,8(sp)
    4358:	a829883a 	mov	r20,r21
    435c:	04c00084 	movi	r19,2
    4360:	003b9e06 	br	31dc <_dtoa_r+0x43c>
    4364:	903c6626 	beq	r18,zero,3500 <_dtoa_r+0x760>
    4368:	d8800a17 	ldw	r2,40(sp)
    436c:	00bc860e 	bge	zero,r2,3588 <_dtoa_r+0x7e8>
    4370:	a00b883a 	mov	r5,r20
    4374:	8809883a 	mov	r4,r17
    4378:	000d883a 	mov	r6,zero
    437c:	01d00934 	movhi	r7,16420
    4380:	000c5300 	call	c530 <__muldf3>
    4384:	99000044 	addi	r4,r19,1
    4388:	1023883a 	mov	r17,r2
    438c:	1829883a 	mov	r20,r3
    4390:	000d7a80 	call	d7a8 <__floatsidf>
    4394:	880d883a 	mov	r6,r17
    4398:	a00f883a 	mov	r7,r20
    439c:	1009883a 	mov	r4,r2
    43a0:	180b883a 	mov	r5,r3
    43a4:	000c5300 	call	c530 <__muldf3>
    43a8:	1009883a 	mov	r4,r2
    43ac:	000d883a 	mov	r6,zero
    43b0:	01d00734 	movhi	r7,16412
    43b4:	180b883a 	mov	r5,r3
    43b8:	000b0b80 	call	b0b8 <__adddf3>
    43bc:	d9000617 	ldw	r4,24(sp)
    43c0:	d8800b15 	stw	r2,44(sp)
    43c4:	00bf3034 	movhi	r2,64704
    43c8:	18a7883a 	add	r19,r3,r2
    43cc:	d8800a17 	ldw	r2,40(sp)
    43d0:	213fffc4 	addi	r4,r4,-1
    43d4:	d9001115 	stw	r4,68(sp)
    43d8:	d8800c15 	stw	r2,48(sp)
    43dc:	003b9a06 	br	3248 <_dtoa_r+0x4a8>
    43e0:	00c00c44 	movi	r3,49
    43e4:	b5800044 	addi	r22,r22,1
    43e8:	003c1906 	br	3450 <_dtoa_r+0x6b0>
    43ec:	00800e44 	movi	r2,57
    43f0:	b0800005 	stb	r2,0(r22)
    43f4:	d8800617 	ldw	r2,24(sp)
    43f8:	dc400215 	stw	r17,8(sp)
    43fc:	b4800044 	addi	r18,r22,1
    4400:	15400044 	addi	r21,r2,1
    4404:	9823883a 	mov	r17,r19
    4408:	003d5306 	br	3958 <_dtoa_r+0xbb8>
    440c:	d8000315 	stw	zero,12(sp)
    4410:	0023883a 	mov	r17,zero
    4414:	003e5406 	br	3d68 <_dtoa_r+0xfc8>
    4418:	e029883a 	mov	r20,fp
    441c:	df000817 	ldw	fp,32(sp)
    4420:	003e2506 	br	3cb8 <_dtoa_r+0xf18>
    4424:	0005883a 	mov	r2,zero
    4428:	003e8906 	br	3e50 <_dtoa_r+0x10b0>
    442c:	102d883a 	mov	r22,r2
    4430:	003e6306 	br	3dc0 <_dtoa_r+0x1020>
    4434:	d8c00417 	ldw	r3,16(sp)
    4438:	1027883a 	mov	r19,r2
    443c:	1485883a 	add	r2,r2,r18
    4440:	1c87883a 	add	r3,r3,r18
    4444:	d8c00415 	stw	r3,16(sp)
    4448:	d8800515 	stw	r2,20(sp)
    444c:	003e9c06 	br	3ec0 <_dtoa_r+0x1120>
    4450:	d8801117 	ldw	r2,68(sp)
    4454:	15800044 	addi	r22,r2,1
    4458:	003bf406 	br	342c <_dtoa_r+0x68c>
    445c:	ddc00b17 	ldw	r23,44(sp)
    4460:	dc000c17 	ldw	r16,48(sp)
    4464:	b011883a 	mov	r8,r22
    4468:	003fb706 	br	4348 <_dtoa_r+0x15a8>
    446c:	dc800d17 	ldw	r18,52(sp)
    4470:	dd800e17 	ldw	r22,56(sp)
    4474:	ddc00b17 	ldw	r23,44(sp)
    4478:	dc000c17 	ldw	r16,48(sp)
    447c:	dd400f17 	ldw	r21,60(sp)
    4480:	003c4106 	br	3588 <_dtoa_r+0x7e8>
    4484:	d8800117 	ldw	r2,4(sp)
    4488:	108000c8 	cmpgei	r2,r2,3
    448c:	1000081e 	bne	r2,zero,44b0 <_dtoa_r+0x1710>
    4490:	d9400317 	ldw	r5,12(sp)
    4494:	b809883a 	mov	r4,r23
    4498:	0002b880 	call	2b88 <quorem>
    449c:	15000c04 	addi	r20,r2,48
    44a0:	dd400617 	ldw	r21,24(sp)
    44a4:	dc800a17 	ldw	r18,40(sp)
    44a8:	e5000005 	stb	r20,0(fp)
    44ac:	003d1b06 	br	391c <_dtoa_r+0xb7c>
    44b0:	dc800a17 	ldw	r18,40(sp)
    44b4:	dd400615 	stw	r21,24(sp)
    44b8:	003e2006 	br	3d3c <_dtoa_r+0xf9c>
    44bc:	4027883a 	mov	r19,r8
    44c0:	003f7e06 	br	42bc <_dtoa_r+0x151c>
    44c4:	d8800117 	ldw	r2,4(sp)
    44c8:	108000c8 	cmpgei	r2,r2,3
    44cc:	103ff81e 	bne	r2,zero,44b0 <_dtoa_r+0x1710>
    44d0:	dd400615 	stw	r21,24(sp)
    44d4:	dc800a17 	ldw	r18,40(sp)
    44d8:	04fd9f0e 	bge	zero,r19,3b58 <_dtoa_r+0xdb8>
    44dc:	003e6406 	br	3e70 <_dtoa_r+0x10d0>
    44e0:	1023883a 	mov	r17,r2
    44e4:	1829883a 	mov	r20,r3
    44e8:	04c00084 	movi	r19,2
    44ec:	003b3b06 	br	31dc <_dtoa_r+0x43c>
    44f0:	01c00074 	movhi	r7,1
    44f4:	01000074 	movhi	r4,1
    44f8:	39c18504 	addi	r7,r7,1556
    44fc:	000d883a 	mov	r6,zero
    4500:	0140ba84 	movi	r5,746
    4504:	21018a04 	addi	r4,r4,1576
    4508:	00093100 	call	9310 <__assert_func>
    450c:	01c00074 	movhi	r7,1
    4510:	01000074 	movhi	r4,1
    4514:	39c18504 	addi	r7,r7,1556
    4518:	000d883a 	mov	r6,zero
    451c:	01406a84 	movi	r5,426
    4520:	21018a04 	addi	r4,r4,1576
    4524:	00093100 	call	9310 <__assert_func>
    4528:	e7018104 	addi	fp,fp,1540
    452c:	003a4d06 	br	2e64 <_dtoa_r+0xc4>
    4530:	80001115 	stw	zero,68(r16)
    4534:	000b883a 	mov	r5,zero
    4538:	8009883a 	mov	r4,r16
    453c:	00064780 	call	6478 <_Balloc>
    4540:	1039883a 	mov	fp,r2
    4544:	103ff126 	beq	r2,zero,450c <_dtoa_r+0x176c>
    4548:	80801015 	stw	r2,64(r16)
    454c:	00bfffc4 	movi	r2,-1
    4550:	d8800a15 	stw	r2,40(sp)
    4554:	00800044 	movi	r2,1
    4558:	04bfffc4 	movi	r18,-1
    455c:	d8800715 	stw	r2,28(sp)
    4560:	d8001f15 	stw	zero,124(sp)
    4564:	003c0806 	br	3588 <_dtoa_r+0x7e8>
    4568:	80001115 	stw	zero,68(r16)
    456c:	000b883a 	mov	r5,zero
    4570:	003ad506 	br	30c8 <_dtoa_r+0x328>
    4574:	a005883a 	mov	r2,r20
    4578:	e029883a 	mov	r20,fp
    457c:	df000817 	ldw	fp,32(sp)
    4580:	00bdcd0e 	bge	zero,r2,3cb8 <_dtoa_r+0xf18>
    4584:	003dc006 	br	3c88 <_dtoa_r+0xee8>

00004588 <__sflush_r>:
    4588:	2880030b 	ldhu	r2,12(r5)
    458c:	defffb04 	addi	sp,sp,-20
    4590:	dcc00315 	stw	r19,12(sp)
    4594:	dc000015 	stw	r16,0(sp)
    4598:	dfc00415 	stw	ra,16(sp)
    459c:	dc800215 	stw	r18,8(sp)
    45a0:	dc400115 	stw	r17,4(sp)
    45a4:	10c0020c 	andi	r3,r2,8
    45a8:	2821883a 	mov	r16,r5
    45ac:	2027883a 	mov	r19,r4
    45b0:	18003c1e 	bne	r3,zero,46a4 <__sflush_r+0x11c>
    45b4:	29000117 	ldw	r4,4(r5)
    45b8:	10c20014 	ori	r3,r2,2048
    45bc:	28c0030d 	sth	r3,12(r5)
    45c0:	0100580e 	bge	zero,r4,4724 <__sflush_r+0x19c>
    45c4:	82000a17 	ldw	r8,40(r16)
    45c8:	40003426 	beq	r8,zero,469c <__sflush_r+0x114>
    45cc:	9c400017 	ldw	r17,0(r19)
    45d0:	1084000c 	andi	r2,r2,4096
    45d4:	98000015 	stw	zero,0(r19)
    45d8:	81400717 	ldw	r5,28(r16)
    45dc:	1000561e 	bne	r2,zero,4738 <__sflush_r+0x1b0>
    45e0:	000d883a 	mov	r6,zero
    45e4:	01c00044 	movi	r7,1
    45e8:	9809883a 	mov	r4,r19
    45ec:	403ee83a 	callr	r8
    45f0:	100d883a 	mov	r6,r2
    45f4:	10bfffd8 	cmpnei	r2,r2,-1
    45f8:	10005b26 	beq	r2,zero,4768 <__sflush_r+0x1e0>
    45fc:	80c0030b 	ldhu	r3,12(r16)
    4600:	82000a17 	ldw	r8,40(r16)
    4604:	18c0010c 	andi	r3,r3,4
    4608:	18000626 	beq	r3,zero,4624 <__sflush_r+0x9c>
    460c:	80c00117 	ldw	r3,4(r16)
    4610:	80800c17 	ldw	r2,48(r16)
    4614:	30cdc83a 	sub	r6,r6,r3
    4618:	10000226 	beq	r2,zero,4624 <__sflush_r+0x9c>
    461c:	80800f17 	ldw	r2,60(r16)
    4620:	308dc83a 	sub	r6,r6,r2
    4624:	81400717 	ldw	r5,28(r16)
    4628:	000f883a 	mov	r7,zero
    462c:	9809883a 	mov	r4,r19
    4630:	403ee83a 	callr	r8
    4634:	10ffffd8 	cmpnei	r3,r2,-1
    4638:	1800411e 	bne	r3,zero,4740 <__sflush_r+0x1b8>
    463c:	99400017 	ldw	r5,0(r19)
    4640:	28c007b0 	cmpltui	r3,r5,30
    4644:	18002c26 	beq	r3,zero,46f8 <__sflush_r+0x170>
    4648:	00f7f034 	movhi	r3,57280
    464c:	18ffff84 	addi	r3,r3,-2
    4650:	1949d83a 	sra	r4,r3,r5
    4654:	80c0030b 	ldhu	r3,12(r16)
    4658:	2100004c 	andi	r4,r4,1
    465c:	2000271e 	bne	r4,zero,46fc <__sflush_r+0x174>
    4660:	81000417 	ldw	r4,16(r16)
    4664:	19bdffcc 	andi	r6,r3,63487
    4668:	8180030d 	sth	r6,12(r16)
    466c:	80000115 	stw	zero,4(r16)
    4670:	81000015 	stw	r4,0(r16)
    4674:	18c4000c 	andi	r3,r3,4096
    4678:	1800431e 	bne	r3,zero,4788 <__sflush_r+0x200>
    467c:	81400c17 	ldw	r5,48(r16)
    4680:	9c400015 	stw	r17,0(r19)
    4684:	28000526 	beq	r5,zero,469c <__sflush_r+0x114>
    4688:	80801004 	addi	r2,r16,64
    468c:	28800226 	beq	r5,r2,4698 <__sflush_r+0x110>
    4690:	9809883a 	mov	r4,r19
    4694:	0004d240 	call	4d24 <_free_r>
    4698:	80000c15 	stw	zero,48(r16)
    469c:	0005883a 	mov	r2,zero
    46a0:	00001906 	br	4708 <__sflush_r+0x180>
    46a4:	2c800417 	ldw	r18,16(r5)
    46a8:	903ffc26 	beq	r18,zero,469c <__sflush_r+0x114>
    46ac:	2c400017 	ldw	r17,0(r5)
    46b0:	108000cc 	andi	r2,r2,3
    46b4:	2c800015 	stw	r18,0(r5)
    46b8:	8ca3c83a 	sub	r17,r17,r18
    46bc:	10001c1e 	bne	r2,zero,4730 <__sflush_r+0x1a8>
    46c0:	28800517 	ldw	r2,20(r5)
    46c4:	80800215 	stw	r2,8(r16)
    46c8:	04400316 	blt	zero,r17,46d8 <__sflush_r+0x150>
    46cc:	003ff306 	br	469c <__sflush_r+0x114>
    46d0:	90a5883a 	add	r18,r18,r2
    46d4:	047ff10e 	bge	zero,r17,469c <__sflush_r+0x114>
    46d8:	80800917 	ldw	r2,36(r16)
    46dc:	81400717 	ldw	r5,28(r16)
    46e0:	880f883a 	mov	r7,r17
    46e4:	900d883a 	mov	r6,r18
    46e8:	9809883a 	mov	r4,r19
    46ec:	103ee83a 	callr	r2
    46f0:	88a3c83a 	sub	r17,r17,r2
    46f4:	00bff616 	blt	zero,r2,46d0 <__sflush_r+0x148>
    46f8:	80c0030b 	ldhu	r3,12(r16)
    46fc:	18c01014 	ori	r3,r3,64
    4700:	80c0030d 	sth	r3,12(r16)
    4704:	00bfffc4 	movi	r2,-1
    4708:	dfc00417 	ldw	ra,16(sp)
    470c:	dcc00317 	ldw	r19,12(sp)
    4710:	dc800217 	ldw	r18,8(sp)
    4714:	dc400117 	ldw	r17,4(sp)
    4718:	dc000017 	ldw	r16,0(sp)
    471c:	dec00504 	addi	sp,sp,20
    4720:	f800283a 	ret
    4724:	29000f17 	ldw	r4,60(r5)
    4728:	013fa616 	blt	zero,r4,45c4 <__sflush_r+0x3c>
    472c:	003fdb06 	br	469c <__sflush_r+0x114>
    4730:	0005883a 	mov	r2,zero
    4734:	003fe306 	br	46c4 <__sflush_r+0x13c>
    4738:	81801417 	ldw	r6,80(r16)
    473c:	003fb106 	br	4604 <__sflush_r+0x7c>
    4740:	80c0030b 	ldhu	r3,12(r16)
    4744:	81000417 	ldw	r4,16(r16)
    4748:	80000115 	stw	zero,4(r16)
    474c:	197dffcc 	andi	r5,r3,63487
    4750:	8140030d 	sth	r5,12(r16)
    4754:	81000015 	stw	r4,0(r16)
    4758:	18c4000c 	andi	r3,r3,4096
    475c:	183fc726 	beq	r3,zero,467c <__sflush_r+0xf4>
    4760:	80801415 	stw	r2,80(r16)
    4764:	003fc506 	br	467c <__sflush_r+0xf4>
    4768:	98800017 	ldw	r2,0(r19)
    476c:	103fa326 	beq	r2,zero,45fc <__sflush_r+0x74>
    4770:	10c00760 	cmpeqi	r3,r2,29
    4774:	1800021e 	bne	r3,zero,4780 <__sflush_r+0x1f8>
    4778:	10800598 	cmpnei	r2,r2,22
    477c:	103fde1e 	bne	r2,zero,46f8 <__sflush_r+0x170>
    4780:	9c400015 	stw	r17,0(r19)
    4784:	003fc506 	br	469c <__sflush_r+0x114>
    4788:	283fbc1e 	bne	r5,zero,467c <__sflush_r+0xf4>
    478c:	003ff406 	br	4760 <__sflush_r+0x1d8>

00004790 <_fflush_r>:
    4790:	defffd04 	addi	sp,sp,-12
    4794:	dc000115 	stw	r16,4(sp)
    4798:	dfc00215 	stw	ra,8(sp)
    479c:	2021883a 	mov	r16,r4
    47a0:	20000226 	beq	r4,zero,47ac <_fflush_r+0x1c>
    47a4:	20800e17 	ldw	r2,56(r4)
    47a8:	10000726 	beq	r2,zero,47c8 <_fflush_r+0x38>
    47ac:	2880030f 	ldh	r2,12(r5)
    47b0:	10000a1e 	bne	r2,zero,47dc <_fflush_r+0x4c>
    47b4:	0005883a 	mov	r2,zero
    47b8:	dfc00217 	ldw	ra,8(sp)
    47bc:	dc000117 	ldw	r16,4(sp)
    47c0:	dec00304 	addi	sp,sp,12
    47c4:	f800283a 	ret
    47c8:	d9400015 	stw	r5,0(sp)
    47cc:	0004bb80 	call	4bb8 <__sinit>
    47d0:	d9400017 	ldw	r5,0(sp)
    47d4:	2880030f 	ldh	r2,12(r5)
    47d8:	103ff626 	beq	r2,zero,47b4 <_fflush_r+0x24>
    47dc:	8009883a 	mov	r4,r16
    47e0:	dfc00217 	ldw	ra,8(sp)
    47e4:	dc000117 	ldw	r16,4(sp)
    47e8:	dec00304 	addi	sp,sp,12
    47ec:	00045881 	jmpi	4588 <__sflush_r>

000047f0 <fflush>:
    47f0:	20001726 	beq	r4,zero,4850 <fflush+0x60>
    47f4:	00800074 	movhi	r2,1
    47f8:	200b883a 	mov	r5,r4
    47fc:	1109e617 	ldw	r4,10136(r2)
    4800:	20000226 	beq	r4,zero,480c <fflush+0x1c>
    4804:	20800e17 	ldw	r2,56(r4)
    4808:	10000526 	beq	r2,zero,4820 <fflush+0x30>
    480c:	2880030f 	ldh	r2,12(r5)
    4810:	1000021e 	bne	r2,zero,481c <fflush+0x2c>
    4814:	0005883a 	mov	r2,zero
    4818:	f800283a 	ret
    481c:	00045881 	jmpi	4588 <__sflush_r>
    4820:	defffd04 	addi	sp,sp,-12
    4824:	d9400115 	stw	r5,4(sp)
    4828:	d9000015 	stw	r4,0(sp)
    482c:	dfc00215 	stw	ra,8(sp)
    4830:	0004bb80 	call	4bb8 <__sinit>
    4834:	d9400117 	ldw	r5,4(sp)
    4838:	d9000017 	ldw	r4,0(sp)
    483c:	2880030f 	ldh	r2,12(r5)
    4840:	10000826 	beq	r2,zero,4864 <fflush+0x74>
    4844:	dfc00217 	ldw	ra,8(sp)
    4848:	dec00304 	addi	sp,sp,12
    484c:	00045881 	jmpi	4588 <__sflush_r>
    4850:	00800074 	movhi	r2,1
    4854:	1109e517 	ldw	r4,10132(r2)
    4858:	01400034 	movhi	r5,0
    485c:	2951e404 	addi	r5,r5,18320
    4860:	000556c1 	jmpi	556c <_fwalk_reent>
    4864:	0005883a 	mov	r2,zero
    4868:	dfc00217 	ldw	ra,8(sp)
    486c:	dec00304 	addi	sp,sp,12
    4870:	f800283a 	ret

00004874 <__fp_lock>:
    4874:	0005883a 	mov	r2,zero
    4878:	f800283a 	ret

0000487c <_cleanup_r>:
    487c:	01400074 	movhi	r5,1
    4880:	29653f04 	addi	r5,r5,-27396
    4884:	000556c1 	jmpi	556c <_fwalk_reent>

00004888 <__fp_unlock>:
    4888:	0005883a 	mov	r2,zero
    488c:	f800283a 	ret

00004890 <__sinit.part.0>:
    4890:	00c00034 	movhi	r3,0
    4894:	20800117 	ldw	r2,4(r4)
    4898:	18d21f04 	addi	r3,r3,18556
    489c:	20c00f15 	stw	r3,60(r4)
    48a0:	2140bb04 	addi	r5,r4,748
    48a4:	00c000c4 	movi	r3,3
    48a8:	20c0b915 	stw	r3,740(r4)
    48ac:	2140ba15 	stw	r5,744(r4)
    48b0:	2000b815 	stw	zero,736(r4)
    48b4:	10001705 	stb	zero,92(r2)
    48b8:	10001745 	stb	zero,93(r2)
    48bc:	10001785 	stb	zero,94(r2)
    48c0:	100017c5 	stb	zero,95(r2)
    48c4:	10001805 	stb	zero,96(r2)
    48c8:	10001845 	stb	zero,97(r2)
    48cc:	10001885 	stb	zero,98(r2)
    48d0:	100018c5 	stb	zero,99(r2)
    48d4:	00c00104 	movi	r3,4
    48d8:	10c00315 	stw	r3,12(r2)
    48dc:	02000034 	movhi	r8,0
    48e0:	20c00217 	ldw	r3,8(r4)
    48e4:	01c00034 	movhi	r7,0
    48e8:	01800034 	movhi	r6,0
    48ec:	01400034 	movhi	r5,0
    48f0:	421f2a04 	addi	r8,r8,31912
    48f4:	39df4104 	addi	r7,r7,32004
    48f8:	319f6104 	addi	r6,r6,32132
    48fc:	295f7804 	addi	r5,r5,32224
    4900:	02400074 	movhi	r9,1
    4904:	10000015 	stw	zero,0(r2)
    4908:	10000115 	stw	zero,4(r2)
    490c:	10000215 	stw	zero,8(r2)
    4910:	10001915 	stw	zero,100(r2)
    4914:	10000415 	stw	zero,16(r2)
    4918:	10000515 	stw	zero,20(r2)
    491c:	10000615 	stw	zero,24(r2)
    4920:	10800715 	stw	r2,28(r2)
    4924:	12000815 	stw	r8,32(r2)
    4928:	11c00915 	stw	r7,36(r2)
    492c:	11800a15 	stw	r6,40(r2)
    4930:	11400b15 	stw	r5,44(r2)
    4934:	4a400284 	addi	r9,r9,10
    4938:	1a400315 	stw	r9,12(r3)
    493c:	18000015 	stw	zero,0(r3)
    4940:	18000115 	stw	zero,4(r3)
    4944:	18000215 	stw	zero,8(r3)
    4948:	18001915 	stw	zero,100(r3)
    494c:	18000415 	stw	zero,16(r3)
    4950:	18001705 	stb	zero,92(r3)
    4954:	18001745 	stb	zero,93(r3)
    4958:	18001785 	stb	zero,94(r3)
    495c:	180017c5 	stb	zero,95(r3)
    4960:	18001805 	stb	zero,96(r3)
    4964:	18001845 	stb	zero,97(r3)
    4968:	18001885 	stb	zero,98(r3)
    496c:	180018c5 	stb	zero,99(r3)
    4970:	20800317 	ldw	r2,12(r4)
    4974:	024000b4 	movhi	r9,2
    4978:	18000515 	stw	zero,20(r3)
    497c:	18000615 	stw	zero,24(r3)
    4980:	18c00715 	stw	r3,28(r3)
    4984:	1a000815 	stw	r8,32(r3)
    4988:	19c00915 	stw	r7,36(r3)
    498c:	19800a15 	stw	r6,40(r3)
    4990:	19400b15 	stw	r5,44(r3)
    4994:	4a400484 	addi	r9,r9,18
    4998:	10000015 	stw	zero,0(r2)
    499c:	10000115 	stw	zero,4(r2)
    49a0:	10000215 	stw	zero,8(r2)
    49a4:	10001915 	stw	zero,100(r2)
    49a8:	12400315 	stw	r9,12(r2)
    49ac:	10000415 	stw	zero,16(r2)
    49b0:	10000515 	stw	zero,20(r2)
    49b4:	10000615 	stw	zero,24(r2)
    49b8:	10001705 	stb	zero,92(r2)
    49bc:	10001745 	stb	zero,93(r2)
    49c0:	10001785 	stb	zero,94(r2)
    49c4:	100017c5 	stb	zero,95(r2)
    49c8:	10001805 	stb	zero,96(r2)
    49cc:	10001845 	stb	zero,97(r2)
    49d0:	10001885 	stb	zero,98(r2)
    49d4:	100018c5 	stb	zero,99(r2)
    49d8:	10800715 	stw	r2,28(r2)
    49dc:	12000815 	stw	r8,32(r2)
    49e0:	11c00915 	stw	r7,36(r2)
    49e4:	11800a15 	stw	r6,40(r2)
    49e8:	11400b15 	stw	r5,44(r2)
    49ec:	00800044 	movi	r2,1
    49f0:	20800e15 	stw	r2,56(r4)
    49f4:	f800283a 	ret

000049f8 <__sfmoreglue>:
    49f8:	defffc04 	addi	sp,sp,-16
    49fc:	dc800215 	stw	r18,8(sp)
    4a00:	2825883a 	mov	r18,r5
    4a04:	dc000015 	stw	r16,0(sp)
    4a08:	01401a04 	movi	r5,104
    4a0c:	2021883a 	mov	r16,r4
    4a10:	913fffc4 	addi	r4,r18,-1
    4a14:	dfc00315 	stw	ra,12(sp)
    4a18:	dc400115 	stw	r17,4(sp)
    4a1c:	000b0900 	call	b090 <__mulsi3>
    4a20:	8009883a 	mov	r4,r16
    4a24:	11401d04 	addi	r5,r2,116
    4a28:	1023883a 	mov	r17,r2
    4a2c:	00058600 	call	5860 <_malloc_r>
    4a30:	1021883a 	mov	r16,r2
    4a34:	10000726 	beq	r2,zero,4a54 <__sfmoreglue+0x5c>
    4a38:	11000304 	addi	r4,r2,12
    4a3c:	10000015 	stw	zero,0(r2)
    4a40:	14800115 	stw	r18,4(r2)
    4a44:	11000215 	stw	r4,8(r2)
    4a48:	89801a04 	addi	r6,r17,104
    4a4c:	000b883a 	mov	r5,zero
    4a50:	00063380 	call	6338 <memset>
    4a54:	8005883a 	mov	r2,r16
    4a58:	dfc00317 	ldw	ra,12(sp)
    4a5c:	dc800217 	ldw	r18,8(sp)
    4a60:	dc400117 	ldw	r17,4(sp)
    4a64:	dc000017 	ldw	r16,0(sp)
    4a68:	dec00404 	addi	sp,sp,16
    4a6c:	f800283a 	ret

00004a70 <__sfp>:
    4a70:	defffc04 	addi	sp,sp,-16
    4a74:	00800074 	movhi	r2,1
    4a78:	dc400115 	stw	r17,4(sp)
    4a7c:	1449e517 	ldw	r17,10132(r2)
    4a80:	dc800215 	stw	r18,8(sp)
    4a84:	dfc00315 	stw	ra,12(sp)
    4a88:	88800e17 	ldw	r2,56(r17)
    4a8c:	dc000015 	stw	r16,0(sp)
    4a90:	2025883a 	mov	r18,r4
    4a94:	10002d26 	beq	r2,zero,4b4c <__sfp+0xdc>
    4a98:	8c40b804 	addi	r17,r17,736
    4a9c:	88800117 	ldw	r2,4(r17)
    4aa0:	8c000217 	ldw	r16,8(r17)
    4aa4:	10bfffc4 	addi	r2,r2,-1
    4aa8:	1000030e 	bge	r2,zero,4ab8 <__sfp+0x48>
    4aac:	00002306 	br	4b3c <__sfp+0xcc>
    4ab0:	84001a04 	addi	r16,r16,104
    4ab4:	28002126 	beq	r5,zero,4b3c <__sfp+0xcc>
    4ab8:	80c0030f 	ldh	r3,12(r16)
    4abc:	10bfffc4 	addi	r2,r2,-1
    4ac0:	117fffd8 	cmpnei	r5,r2,-1
    4ac4:	183ffa1e 	bne	r3,zero,4ab0 <__sfp+0x40>
    4ac8:	00bffff4 	movhi	r2,65535
    4acc:	10800044 	addi	r2,r2,1
    4ad0:	80800315 	stw	r2,12(r16)
    4ad4:	80001915 	stw	zero,100(r16)
    4ad8:	80000015 	stw	zero,0(r16)
    4adc:	80000215 	stw	zero,8(r16)
    4ae0:	80000115 	stw	zero,4(r16)
    4ae4:	80000415 	stw	zero,16(r16)
    4ae8:	80000515 	stw	zero,20(r16)
    4aec:	80000615 	stw	zero,24(r16)
    4af0:	80001705 	stb	zero,92(r16)
    4af4:	80001745 	stb	zero,93(r16)
    4af8:	80001785 	stb	zero,94(r16)
    4afc:	800017c5 	stb	zero,95(r16)
    4b00:	80001805 	stb	zero,96(r16)
    4b04:	80001845 	stb	zero,97(r16)
    4b08:	80001885 	stb	zero,98(r16)
    4b0c:	800018c5 	stb	zero,99(r16)
    4b10:	80000c15 	stw	zero,48(r16)
    4b14:	80000d15 	stw	zero,52(r16)
    4b18:	80001115 	stw	zero,68(r16)
    4b1c:	80001215 	stw	zero,72(r16)
    4b20:	8005883a 	mov	r2,r16
    4b24:	dfc00317 	ldw	ra,12(sp)
    4b28:	dc800217 	ldw	r18,8(sp)
    4b2c:	dc400117 	ldw	r17,4(sp)
    4b30:	dc000017 	ldw	r16,0(sp)
    4b34:	dec00404 	addi	sp,sp,16
    4b38:	f800283a 	ret
    4b3c:	8c000017 	ldw	r16,0(r17)
    4b40:	80000526 	beq	r16,zero,4b58 <__sfp+0xe8>
    4b44:	8023883a 	mov	r17,r16
    4b48:	003fd406 	br	4a9c <__sfp+0x2c>
    4b4c:	8809883a 	mov	r4,r17
    4b50:	00048900 	call	4890 <__sinit.part.0>
    4b54:	003fd006 	br	4a98 <__sfp+0x28>
    4b58:	01406b04 	movi	r5,428
    4b5c:	9009883a 	mov	r4,r18
    4b60:	00058600 	call	5860 <_malloc_r>
    4b64:	1021883a 	mov	r16,r2
    4b68:	10000a26 	beq	r2,zero,4b94 <__sfp+0x124>
    4b6c:	10000015 	stw	zero,0(r2)
    4b70:	11000304 	addi	r4,r2,12
    4b74:	00800104 	movi	r2,4
    4b78:	80800115 	stw	r2,4(r16)
    4b7c:	81000215 	stw	r4,8(r16)
    4b80:	01806804 	movi	r6,416
    4b84:	000b883a 	mov	r5,zero
    4b88:	00063380 	call	6338 <memset>
    4b8c:	8c000015 	stw	r16,0(r17)
    4b90:	003fec06 	br	4b44 <__sfp+0xd4>
    4b94:	88000015 	stw	zero,0(r17)
    4b98:	00800304 	movi	r2,12
    4b9c:	90800015 	stw	r2,0(r18)
    4ba0:	003fdf06 	br	4b20 <__sfp+0xb0>

00004ba4 <_cleanup>:
    4ba4:	00800074 	movhi	r2,1
    4ba8:	1109e517 	ldw	r4,10132(r2)
    4bac:	01400074 	movhi	r5,1
    4bb0:	29653f04 	addi	r5,r5,-27396
    4bb4:	000556c1 	jmpi	556c <_fwalk_reent>

00004bb8 <__sinit>:
    4bb8:	20800e17 	ldw	r2,56(r4)
    4bbc:	10000126 	beq	r2,zero,4bc4 <__sinit+0xc>
    4bc0:	f800283a 	ret
    4bc4:	00048901 	jmpi	4890 <__sinit.part.0>

00004bc8 <__sfp_lock_acquire>:
    4bc8:	f800283a 	ret

00004bcc <__sfp_lock_release>:
    4bcc:	f800283a 	ret

00004bd0 <__sinit_lock_acquire>:
    4bd0:	f800283a 	ret

00004bd4 <__sinit_lock_release>:
    4bd4:	f800283a 	ret

00004bd8 <__fp_lock_all>:
    4bd8:	00800074 	movhi	r2,1
    4bdc:	1109e617 	ldw	r4,10136(r2)
    4be0:	01400034 	movhi	r5,0
    4be4:	29521d04 	addi	r5,r5,18548
    4be8:	00054d41 	jmpi	54d4 <_fwalk>

00004bec <__fp_unlock_all>:
    4bec:	00800074 	movhi	r2,1
    4bf0:	1109e617 	ldw	r4,10136(r2)
    4bf4:	01400034 	movhi	r5,0
    4bf8:	29522204 	addi	r5,r5,18568
    4bfc:	00054d41 	jmpi	54d4 <_fwalk>

00004c00 <_malloc_trim_r>:
    4c00:	defffa04 	addi	sp,sp,-24
    4c04:	dcc00315 	stw	r19,12(sp)
    4c08:	04c00074 	movhi	r19,1
    4c0c:	dd000415 	stw	r20,16(sp)
    4c10:	dc800215 	stw	r18,8(sp)
    4c14:	dc400115 	stw	r17,4(sp)
    4c18:	dc000015 	stw	r16,0(sp)
    4c1c:	2829883a 	mov	r20,r5
    4c20:	dfc00515 	stw	ra,20(sp)
    4c24:	9cc40604 	addi	r19,r19,4120
    4c28:	2025883a 	mov	r18,r4
    4c2c:	000e0740 	call	e074 <__malloc_lock>
    4c30:	98800217 	ldw	r2,8(r19)
    4c34:	14400117 	ldw	r17,4(r2)
    4c38:	00bfff04 	movi	r2,-4
    4c3c:	88a2703a 	and	r17,r17,r2
    4c40:	8c03fbc4 	addi	r16,r17,4079
    4c44:	8521c83a 	sub	r16,r16,r20
    4c48:	8020d33a 	srli	r16,r16,12
    4c4c:	843fffc4 	addi	r16,r16,-1
    4c50:	8020933a 	slli	r16,r16,12
    4c54:	80840008 	cmpgei	r2,r16,4096
    4c58:	10000626 	beq	r2,zero,4c74 <_malloc_trim_r+0x74>
    4c5c:	000b883a 	mov	r5,zero
    4c60:	9009883a 	mov	r4,r18
    4c64:	0007c500 	call	7c50 <_sbrk_r>
    4c68:	98c00217 	ldw	r3,8(r19)
    4c6c:	1c47883a 	add	r3,r3,r17
    4c70:	10c00b26 	beq	r2,r3,4ca0 <_malloc_trim_r+0xa0>
    4c74:	9009883a 	mov	r4,r18
    4c78:	000e0980 	call	e098 <__malloc_unlock>
    4c7c:	0005883a 	mov	r2,zero
    4c80:	dfc00517 	ldw	ra,20(sp)
    4c84:	dd000417 	ldw	r20,16(sp)
    4c88:	dcc00317 	ldw	r19,12(sp)
    4c8c:	dc800217 	ldw	r18,8(sp)
    4c90:	dc400117 	ldw	r17,4(sp)
    4c94:	dc000017 	ldw	r16,0(sp)
    4c98:	dec00604 	addi	sp,sp,24
    4c9c:	f800283a 	ret
    4ca0:	040bc83a 	sub	r5,zero,r16
    4ca4:	9009883a 	mov	r4,r18
    4ca8:	0007c500 	call	7c50 <_sbrk_r>
    4cac:	10bfffd8 	cmpnei	r2,r2,-1
    4cb0:	10000d26 	beq	r2,zero,4ce8 <_malloc_trim_r+0xe8>
    4cb4:	00800074 	movhi	r2,1
    4cb8:	1090f617 	ldw	r2,17368(r2)
    4cbc:	98c00217 	ldw	r3,8(r19)
    4cc0:	8c23c83a 	sub	r17,r17,r16
    4cc4:	8c400054 	ori	r17,r17,1
    4cc8:	1405c83a 	sub	r2,r2,r16
    4ccc:	1c400115 	stw	r17,4(r3)
    4cd0:	9009883a 	mov	r4,r18
    4cd4:	00c00074 	movhi	r3,1
    4cd8:	1890f615 	stw	r2,17368(r3)
    4cdc:	000e0980 	call	e098 <__malloc_unlock>
    4ce0:	00800044 	movi	r2,1
    4ce4:	003fe606 	br	4c80 <_malloc_trim_r+0x80>
    4ce8:	000b883a 	mov	r5,zero
    4cec:	9009883a 	mov	r4,r18
    4cf0:	0007c500 	call	7c50 <_sbrk_r>
    4cf4:	99000217 	ldw	r4,8(r19)
    4cf8:	1107c83a 	sub	r3,r2,r4
    4cfc:	19400410 	cmplti	r5,r3,16
    4d00:	283fdc1e 	bne	r5,zero,4c74 <_malloc_trim_r+0x74>
    4d04:	01400074 	movhi	r5,1
    4d08:	2949e717 	ldw	r5,10140(r5)
    4d0c:	18c00054 	ori	r3,r3,1
    4d10:	20c00115 	stw	r3,4(r4)
    4d14:	1145c83a 	sub	r2,r2,r5
    4d18:	01400074 	movhi	r5,1
    4d1c:	2890f615 	stw	r2,17368(r5)
    4d20:	003fd406 	br	4c74 <_malloc_trim_r+0x74>

00004d24 <_free_r>:
    4d24:	28005f26 	beq	r5,zero,4ea4 <_free_r+0x180>
    4d28:	defffd04 	addi	sp,sp,-12
    4d2c:	dc400115 	stw	r17,4(sp)
    4d30:	dc000015 	stw	r16,0(sp)
    4d34:	2023883a 	mov	r17,r4
    4d38:	2821883a 	mov	r16,r5
    4d3c:	dfc00215 	stw	ra,8(sp)
    4d40:	000e0740 	call	e074 <__malloc_lock>
    4d44:	81ffff17 	ldw	r7,-4(r16)
    4d48:	00bfff84 	movi	r2,-2
    4d4c:	80fffe04 	addi	r3,r16,-8
    4d50:	3884703a 	and	r2,r7,r2
    4d54:	01800074 	movhi	r6,1
    4d58:	1889883a 	add	r4,r3,r2
    4d5c:	31840604 	addi	r6,r6,4120
    4d60:	21400117 	ldw	r5,4(r4)
    4d64:	32000217 	ldw	r8,8(r6)
    4d68:	027fff04 	movi	r9,-4
    4d6c:	2a4a703a 	and	r5,r5,r9
    4d70:	41006526 	beq	r8,r4,4f08 <_free_r+0x1e4>
    4d74:	21400115 	stw	r5,4(r4)
    4d78:	39c0004c 	andi	r7,r7,1
    4d7c:	2151883a 	add	r8,r4,r5
    4d80:	3800281e 	bne	r7,zero,4e24 <_free_r+0x100>
    4d84:	82bffe17 	ldw	r10,-8(r16)
    4d88:	42000117 	ldw	r8,4(r8)
    4d8c:	01c00074 	movhi	r7,1
    4d90:	1a87c83a 	sub	r3,r3,r10
    4d94:	1a400217 	ldw	r9,8(r3)
    4d98:	39c40804 	addi	r7,r7,4128
    4d9c:	1285883a 	add	r2,r2,r10
    4da0:	4200004c 	andi	r8,r8,1
    4da4:	49c04d26 	beq	r9,r7,4edc <_free_r+0x1b8>
    4da8:	1a800317 	ldw	r10,12(r3)
    4dac:	4a800315 	stw	r10,12(r9)
    4db0:	52400215 	stw	r9,8(r10)
    4db4:	40006926 	beq	r8,zero,4f5c <_free_r+0x238>
    4db8:	11400054 	ori	r5,r2,1
    4dbc:	19400115 	stw	r5,4(r3)
    4dc0:	20800015 	stw	r2,0(r4)
    4dc4:	11008028 	cmpgeui	r4,r2,512
    4dc8:	20001e1e 	bne	r4,zero,4e44 <_free_r+0x120>
    4dcc:	1008d0fa 	srli	r4,r2,3
    4dd0:	100ad17a 	srli	r5,r2,5
    4dd4:	31c00117 	ldw	r7,4(r6)
    4dd8:	20800044 	addi	r2,r4,1
    4ddc:	100490fa 	slli	r2,r2,3
    4de0:	01000044 	movi	r4,1
    4de4:	2148983a 	sll	r4,r4,r5
    4de8:	3085883a 	add	r2,r6,r2
    4dec:	11400017 	ldw	r5,0(r2)
    4df0:	21c8b03a 	or	r4,r4,r7
    4df4:	11fffe04 	addi	r7,r2,-8
    4df8:	19c00315 	stw	r7,12(r3)
    4dfc:	19400215 	stw	r5,8(r3)
    4e00:	31000115 	stw	r4,4(r6)
    4e04:	10c00015 	stw	r3,0(r2)
    4e08:	28c00315 	stw	r3,12(r5)
    4e0c:	8809883a 	mov	r4,r17
    4e10:	dfc00217 	ldw	ra,8(sp)
    4e14:	dc400117 	ldw	r17,4(sp)
    4e18:	dc000017 	ldw	r16,0(sp)
    4e1c:	dec00304 	addi	sp,sp,12
    4e20:	000e0981 	jmpi	e098 <__malloc_unlock>
    4e24:	41c00117 	ldw	r7,4(r8)
    4e28:	39c0004c 	andi	r7,r7,1
    4e2c:	38001e26 	beq	r7,zero,4ea8 <_free_r+0x184>
    4e30:	11400054 	ori	r5,r2,1
    4e34:	817fff15 	stw	r5,-4(r16)
    4e38:	20800015 	stw	r2,0(r4)
    4e3c:	11008028 	cmpgeui	r4,r2,512
    4e40:	203fe226 	beq	r4,zero,4dcc <_free_r+0xa8>
    4e44:	1008d27a 	srli	r4,r2,9
    4e48:	21400168 	cmpgeui	r5,r4,5
    4e4c:	2800451e 	bne	r5,zero,4f64 <_free_r+0x240>
    4e50:	1008d1ba 	srli	r4,r2,6
    4e54:	21c00e44 	addi	r7,r4,57
    4e58:	380e90fa 	slli	r7,r7,3
    4e5c:	21000e04 	addi	r4,r4,56
    4e60:	31cf883a 	add	r7,r6,r7
    4e64:	39400017 	ldw	r5,0(r7)
    4e68:	39fffe04 	addi	r7,r7,-8
    4e6c:	39405326 	beq	r7,r5,4fbc <_free_r+0x298>
    4e70:	01bfff04 	movi	r6,-4
    4e74:	00000206 	br	4e80 <_free_r+0x15c>
    4e78:	29400217 	ldw	r5,8(r5)
    4e7c:	39400326 	beq	r7,r5,4e8c <_free_r+0x168>
    4e80:	29000117 	ldw	r4,4(r5)
    4e84:	2188703a 	and	r4,r4,r6
    4e88:	113ffb36 	bltu	r2,r4,4e78 <_free_r+0x154>
    4e8c:	29c00317 	ldw	r7,12(r5)
    4e90:	19c00315 	stw	r7,12(r3)
    4e94:	19400215 	stw	r5,8(r3)
    4e98:	38c00215 	stw	r3,8(r7)
    4e9c:	28c00315 	stw	r3,12(r5)
    4ea0:	003fda06 	br	4e0c <_free_r+0xe8>
    4ea4:	f800283a 	ret
    4ea8:	01c00074 	movhi	r7,1
    4eac:	1145883a 	add	r2,r2,r5
    4eb0:	39c40804 	addi	r7,r7,4128
    4eb4:	21400217 	ldw	r5,8(r4)
    4eb8:	29c03726 	beq	r5,r7,4f98 <_free_r+0x274>
    4ebc:	22000317 	ldw	r8,12(r4)
    4ec0:	11c00054 	ori	r7,r2,1
    4ec4:	1889883a 	add	r4,r3,r2
    4ec8:	2a000315 	stw	r8,12(r5)
    4ecc:	41400215 	stw	r5,8(r8)
    4ed0:	19c00115 	stw	r7,4(r3)
    4ed4:	20800015 	stw	r2,0(r4)
    4ed8:	003fba06 	br	4dc4 <_free_r+0xa0>
    4edc:	40004f1e 	bne	r8,zero,501c <_free_r+0x2f8>
    4ee0:	21800217 	ldw	r6,8(r4)
    4ee4:	21000317 	ldw	r4,12(r4)
    4ee8:	288b883a 	add	r5,r5,r2
    4eec:	28800054 	ori	r2,r5,1
    4ef0:	31000315 	stw	r4,12(r6)
    4ef4:	21800215 	stw	r6,8(r4)
    4ef8:	18800115 	stw	r2,4(r3)
    4efc:	1947883a 	add	r3,r3,r5
    4f00:	19400015 	stw	r5,0(r3)
    4f04:	003fc106 	br	4e0c <_free_r+0xe8>
    4f08:	39c0004c 	andi	r7,r7,1
    4f0c:	114b883a 	add	r5,r2,r5
    4f10:	3800071e 	bne	r7,zero,4f30 <_free_r+0x20c>
    4f14:	81fffe17 	ldw	r7,-8(r16)
    4f18:	19c7c83a 	sub	r3,r3,r7
    4f1c:	18800317 	ldw	r2,12(r3)
    4f20:	19000217 	ldw	r4,8(r3)
    4f24:	29cb883a 	add	r5,r5,r7
    4f28:	20800315 	stw	r2,12(r4)
    4f2c:	11000215 	stw	r4,8(r2)
    4f30:	00800074 	movhi	r2,1
    4f34:	29000054 	ori	r4,r5,1
    4f38:	1089e817 	ldw	r2,10144(r2)
    4f3c:	19000115 	stw	r4,4(r3)
    4f40:	30c00215 	stw	r3,8(r6)
    4f44:	28bfb136 	bltu	r5,r2,4e0c <_free_r+0xe8>
    4f48:	00800074 	movhi	r2,1
    4f4c:	1150eb17 	ldw	r5,17324(r2)
    4f50:	8809883a 	mov	r4,r17
    4f54:	0004c000 	call	4c00 <_malloc_trim_r>
    4f58:	003fac06 	br	4e0c <_free_r+0xe8>
    4f5c:	1145883a 	add	r2,r2,r5
    4f60:	003fd406 	br	4eb4 <_free_r+0x190>
    4f64:	21400568 	cmpgeui	r5,r4,21
    4f68:	28000726 	beq	r5,zero,4f88 <_free_r+0x264>
    4f6c:	21401568 	cmpgeui	r5,r4,85
    4f70:	2800191e 	bne	r5,zero,4fd8 <_free_r+0x2b4>
    4f74:	1008d33a 	srli	r4,r2,12
    4f78:	21c01bc4 	addi	r7,r4,111
    4f7c:	380e90fa 	slli	r7,r7,3
    4f80:	21001b84 	addi	r4,r4,110
    4f84:	003fb606 	br	4e60 <_free_r+0x13c>
    4f88:	21c01704 	addi	r7,r4,92
    4f8c:	380e90fa 	slli	r7,r7,3
    4f90:	210016c4 	addi	r4,r4,91
    4f94:	003fb206 	br	4e60 <_free_r+0x13c>
    4f98:	30c00515 	stw	r3,20(r6)
    4f9c:	30c00415 	stw	r3,16(r6)
    4fa0:	11000054 	ori	r4,r2,1
    4fa4:	19c00315 	stw	r7,12(r3)
    4fa8:	19c00215 	stw	r7,8(r3)
    4fac:	19000115 	stw	r4,4(r3)
    4fb0:	1887883a 	add	r3,r3,r2
    4fb4:	18800015 	stw	r2,0(r3)
    4fb8:	003f9406 	br	4e0c <_free_r+0xe8>
    4fbc:	2009d0ba 	srai	r4,r4,2
    4fc0:	00800044 	movi	r2,1
    4fc4:	32000117 	ldw	r8,4(r6)
    4fc8:	1104983a 	sll	r2,r2,r4
    4fcc:	1204b03a 	or	r2,r2,r8
    4fd0:	30800115 	stw	r2,4(r6)
    4fd4:	003fae06 	br	4e90 <_free_r+0x16c>
    4fd8:	21405568 	cmpgeui	r5,r4,341
    4fdc:	2800051e 	bne	r5,zero,4ff4 <_free_r+0x2d0>
    4fe0:	1008d3fa 	srli	r4,r2,15
    4fe4:	21c01e04 	addi	r7,r4,120
    4fe8:	380e90fa 	slli	r7,r7,3
    4fec:	21001dc4 	addi	r4,r4,119
    4ff0:	003f9b06 	br	4e60 <_free_r+0x13c>
    4ff4:	21015568 	cmpgeui	r4,r4,1365
    4ff8:	2000051e 	bne	r4,zero,5010 <_free_r+0x2ec>
    4ffc:	1008d4ba 	srli	r4,r2,18
    5000:	21c01f44 	addi	r7,r4,125
    5004:	380e90fa 	slli	r7,r7,3
    5008:	21001f04 	addi	r4,r4,124
    500c:	003f9406 	br	4e60 <_free_r+0x13c>
    5010:	01c0fe04 	movi	r7,1016
    5014:	01001f84 	movi	r4,126
    5018:	003f9106 	br	4e60 <_free_r+0x13c>
    501c:	11400054 	ori	r5,r2,1
    5020:	19400115 	stw	r5,4(r3)
    5024:	20800015 	stw	r2,0(r4)
    5028:	003f7806 	br	4e0c <_free_r+0xe8>

0000502c <__sfvwrite_r>:
    502c:	30800217 	ldw	r2,8(r6)
    5030:	1000c426 	beq	r2,zero,5344 <__sfvwrite_r+0x318>
    5034:	2a80030b 	ldhu	r10,12(r5)
    5038:	defff504 	addi	sp,sp,-44
    503c:	df000915 	stw	fp,36(sp)
    5040:	dcc00415 	stw	r19,16(sp)
    5044:	dc000115 	stw	r16,4(sp)
    5048:	dfc00a15 	stw	ra,40(sp)
    504c:	ddc00815 	stw	r23,32(sp)
    5050:	dd800715 	stw	r22,28(sp)
    5054:	dd400615 	stw	r21,24(sp)
    5058:	dd000515 	stw	r20,20(sp)
    505c:	dc800315 	stw	r18,12(sp)
    5060:	dc400215 	stw	r17,8(sp)
    5064:	5080020c 	andi	r2,r10,8
    5068:	3039883a 	mov	fp,r6
    506c:	2027883a 	mov	r19,r4
    5070:	2821883a 	mov	r16,r5
    5074:	10002226 	beq	r2,zero,5100 <__sfvwrite_r+0xd4>
    5078:	28800417 	ldw	r2,16(r5)
    507c:	10002026 	beq	r2,zero,5100 <__sfvwrite_r+0xd4>
    5080:	5080008c 	andi	r2,r10,2
    5084:	e4400017 	ldw	r17,0(fp)
    5088:	10002526 	beq	r2,zero,5120 <__sfvwrite_r+0xf4>
    508c:	80800917 	ldw	r2,36(r16)
    5090:	81400717 	ldw	r5,28(r16)
    5094:	05600034 	movhi	r21,32768
    5098:	0029883a 	mov	r20,zero
    509c:	0025883a 	mov	r18,zero
    50a0:	ad7f0004 	addi	r21,r21,-1024
    50a4:	a00d883a 	mov	r6,r20
    50a8:	9809883a 	mov	r4,r19
    50ac:	90001026 	beq	r18,zero,50f0 <__sfvwrite_r+0xc4>
    50b0:	900f883a 	mov	r7,r18
    50b4:	ac80012e 	bgeu	r21,r18,50bc <__sfvwrite_r+0x90>
    50b8:	a80f883a 	mov	r7,r21
    50bc:	103ee83a 	callr	r2
    50c0:	00809b0e 	bge	zero,r2,5330 <__sfvwrite_r+0x304>
    50c4:	e0c00217 	ldw	r3,8(fp)
    50c8:	a0a9883a 	add	r20,r20,r2
    50cc:	90a5c83a 	sub	r18,r18,r2
    50d0:	1885c83a 	sub	r2,r3,r2
    50d4:	e0800215 	stw	r2,8(fp)
    50d8:	10008426 	beq	r2,zero,52ec <__sfvwrite_r+0x2c0>
    50dc:	80800917 	ldw	r2,36(r16)
    50e0:	81400717 	ldw	r5,28(r16)
    50e4:	a00d883a 	mov	r6,r20
    50e8:	9809883a 	mov	r4,r19
    50ec:	903ff01e 	bne	r18,zero,50b0 <__sfvwrite_r+0x84>
    50f0:	8d000017 	ldw	r20,0(r17)
    50f4:	8c800117 	ldw	r18,4(r17)
    50f8:	8c400204 	addi	r17,r17,8
    50fc:	003fe906 	br	50a4 <__sfvwrite_r+0x78>
    5100:	800b883a 	mov	r5,r16
    5104:	9809883a 	mov	r4,r19
    5108:	0002a3c0 	call	2a3c <__swsetup_r>
    510c:	10008b1e 	bne	r2,zero,533c <__sfvwrite_r+0x310>
    5110:	8280030b 	ldhu	r10,12(r16)
    5114:	e4400017 	ldw	r17,0(fp)
    5118:	5080008c 	andi	r2,r10,2
    511c:	103fdb1e 	bne	r2,zero,508c <__sfvwrite_r+0x60>
    5120:	5080004c 	andi	r2,r10,1
    5124:	10004f1e 	bne	r2,zero,5264 <__sfvwrite_r+0x238>
    5128:	00a00034 	movhi	r2,32768
    512c:	81c00017 	ldw	r7,0(r16)
    5130:	80c00217 	ldw	r3,8(r16)
    5134:	10bfffc4 	addi	r2,r2,-1
    5138:	002d883a 	mov	r22,zero
    513c:	0025883a 	mov	r18,zero
    5140:	d8800015 	stw	r2,0(sp)
    5144:	3809883a 	mov	r4,r7
    5148:	1829883a 	mov	r20,r3
    514c:	90004126 	beq	r18,zero,5254 <__sfvwrite_r+0x228>
    5150:	5080800c 	andi	r2,r10,512
    5154:	10009526 	beq	r2,zero,53ac <__sfvwrite_r+0x380>
    5158:	182b883a 	mov	r21,r3
    515c:	90c0ba36 	bltu	r18,r3,5448 <__sfvwrite_r+0x41c>
    5160:	5081200c 	andi	r2,r10,1152
    5164:	10002526 	beq	r2,zero,51fc <__sfvwrite_r+0x1d0>
    5168:	80c00517 	ldw	r3,20(r16)
    516c:	81000417 	ldw	r4,16(r16)
    5170:	18c5883a 	add	r2,r3,r3
    5174:	10c5883a 	add	r2,r2,r3
    5178:	1012d7fa 	srli	r9,r2,31
    517c:	392fc83a 	sub	r23,r7,r4
    5180:	b8c00044 	addi	r3,r23,1
    5184:	4893883a 	add	r9,r9,r2
    5188:	4829d07a 	srai	r20,r9,1
    518c:	1c85883a 	add	r2,r3,r18
    5190:	a00b883a 	mov	r5,r20
    5194:	a080022e 	bgeu	r20,r2,51a0 <__sfvwrite_r+0x174>
    5198:	1029883a 	mov	r20,r2
    519c:	100b883a 	mov	r5,r2
    51a0:	5281000c 	andi	r10,r10,1024
    51a4:	5000b926 	beq	r10,zero,548c <__sfvwrite_r+0x460>
    51a8:	9809883a 	mov	r4,r19
    51ac:	00058600 	call	5860 <_malloc_r>
    51b0:	1000c426 	beq	r2,zero,54c4 <__sfvwrite_r+0x498>
    51b4:	81400417 	ldw	r5,16(r16)
    51b8:	1009883a 	mov	r4,r2
    51bc:	b80d883a 	mov	r6,r23
    51c0:	00061100 	call	6110 <memcpy>
    51c4:	1007883a 	mov	r3,r2
    51c8:	8080030b 	ldhu	r2,12(r16)
    51cc:	013edfc4 	movi	r4,-1153
    51d0:	1104703a 	and	r2,r2,r4
    51d4:	10802014 	ori	r2,r2,128
    51d8:	8080030d 	sth	r2,12(r16)
    51dc:	a5cfc83a 	sub	r7,r20,r23
    51e0:	1dc9883a 	add	r4,r3,r23
    51e4:	85000515 	stw	r20,20(r16)
    51e8:	80c00415 	stw	r3,16(r16)
    51ec:	81000015 	stw	r4,0(r16)
    51f0:	9029883a 	mov	r20,r18
    51f4:	81c00215 	stw	r7,8(r16)
    51f8:	902b883a 	mov	r21,r18
    51fc:	a80d883a 	mov	r6,r21
    5200:	b00b883a 	mov	r5,r22
    5204:	00062100 	call	6210 <memmove>
    5208:	80c00217 	ldw	r3,8(r16)
    520c:	81c00017 	ldw	r7,0(r16)
    5210:	902f883a 	mov	r23,r18
    5214:	1d07c83a 	sub	r3,r3,r20
    5218:	3d4d883a 	add	r6,r7,r21
    521c:	80c00215 	stw	r3,8(r16)
    5220:	81800015 	stw	r6,0(r16)
    5224:	0025883a 	mov	r18,zero
    5228:	e0800217 	ldw	r2,8(fp)
    522c:	b5ed883a 	add	r22,r22,r23
    5230:	15c5c83a 	sub	r2,r2,r23
    5234:	e0800215 	stw	r2,8(fp)
    5238:	10002c26 	beq	r2,zero,52ec <__sfvwrite_r+0x2c0>
    523c:	81c00017 	ldw	r7,0(r16)
    5240:	80c00217 	ldw	r3,8(r16)
    5244:	8280030b 	ldhu	r10,12(r16)
    5248:	3809883a 	mov	r4,r7
    524c:	1829883a 	mov	r20,r3
    5250:	903fbf1e 	bne	r18,zero,5150 <__sfvwrite_r+0x124>
    5254:	8d800017 	ldw	r22,0(r17)
    5258:	8c800117 	ldw	r18,4(r17)
    525c:	8c400204 	addi	r17,r17,8
    5260:	003fb806 	br	5144 <__sfvwrite_r+0x118>
    5264:	002f883a 	mov	r23,zero
    5268:	0005883a 	mov	r2,zero
    526c:	002b883a 	mov	r21,zero
    5270:	0029883a 	mov	r20,zero
    5274:	a0003526 	beq	r20,zero,534c <__sfvwrite_r+0x320>
    5278:	10003926 	beq	r2,zero,5360 <__sfvwrite_r+0x334>
    527c:	b805883a 	mov	r2,r23
    5280:	a02d883a 	mov	r22,r20
    5284:	1500012e 	bgeu	r2,r20,528c <__sfvwrite_r+0x260>
    5288:	102d883a 	mov	r22,r2
    528c:	81000017 	ldw	r4,0(r16)
    5290:	80800417 	ldw	r2,16(r16)
    5294:	84800217 	ldw	r18,8(r16)
    5298:	81c00517 	ldw	r7,20(r16)
    529c:	1100022e 	bgeu	r2,r4,52a8 <__sfvwrite_r+0x27c>
    52a0:	91e5883a 	add	r18,r18,r7
    52a4:	95803616 	blt	r18,r22,5380 <__sfvwrite_r+0x354>
    52a8:	b1c06a16 	blt	r22,r7,5454 <__sfvwrite_r+0x428>
    52ac:	80800917 	ldw	r2,36(r16)
    52b0:	81400717 	ldw	r5,28(r16)
    52b4:	a80d883a 	mov	r6,r21
    52b8:	9809883a 	mov	r4,r19
    52bc:	103ee83a 	callr	r2
    52c0:	1025883a 	mov	r18,r2
    52c4:	00801a0e 	bge	zero,r2,5330 <__sfvwrite_r+0x304>
    52c8:	bcafc83a 	sub	r23,r23,r18
    52cc:	b8001426 	beq	r23,zero,5320 <__sfvwrite_r+0x2f4>
    52d0:	00800044 	movi	r2,1
    52d4:	e0c00217 	ldw	r3,8(fp)
    52d8:	acab883a 	add	r21,r21,r18
    52dc:	a4a9c83a 	sub	r20,r20,r18
    52e0:	1c87c83a 	sub	r3,r3,r18
    52e4:	e0c00215 	stw	r3,8(fp)
    52e8:	183fe21e 	bne	r3,zero,5274 <__sfvwrite_r+0x248>
    52ec:	0005883a 	mov	r2,zero
    52f0:	dfc00a17 	ldw	ra,40(sp)
    52f4:	df000917 	ldw	fp,36(sp)
    52f8:	ddc00817 	ldw	r23,32(sp)
    52fc:	dd800717 	ldw	r22,28(sp)
    5300:	dd400617 	ldw	r21,24(sp)
    5304:	dd000517 	ldw	r20,20(sp)
    5308:	dcc00417 	ldw	r19,16(sp)
    530c:	dc800317 	ldw	r18,12(sp)
    5310:	dc400217 	ldw	r17,8(sp)
    5314:	dc000117 	ldw	r16,4(sp)
    5318:	dec00b04 	addi	sp,sp,44
    531c:	f800283a 	ret
    5320:	800b883a 	mov	r5,r16
    5324:	9809883a 	mov	r4,r19
    5328:	00047900 	call	4790 <_fflush_r>
    532c:	103fe926 	beq	r2,zero,52d4 <__sfvwrite_r+0x2a8>
    5330:	8080030b 	ldhu	r2,12(r16)
    5334:	10801014 	ori	r2,r2,64
    5338:	8080030d 	sth	r2,12(r16)
    533c:	00bfffc4 	movi	r2,-1
    5340:	003feb06 	br	52f0 <__sfvwrite_r+0x2c4>
    5344:	0005883a 	mov	r2,zero
    5348:	f800283a 	ret
    534c:	8d000117 	ldw	r20,4(r17)
    5350:	8805883a 	mov	r2,r17
    5354:	8c400204 	addi	r17,r17,8
    5358:	a03ffc26 	beq	r20,zero,534c <__sfvwrite_r+0x320>
    535c:	15400017 	ldw	r21,0(r2)
    5360:	a00d883a 	mov	r6,r20
    5364:	01400284 	movi	r5,10
    5368:	a809883a 	mov	r4,r21
    536c:	00060140 	call	6014 <memchr>
    5370:	10004326 	beq	r2,zero,5480 <__sfvwrite_r+0x454>
    5374:	10800044 	addi	r2,r2,1
    5378:	156fc83a 	sub	r23,r2,r21
    537c:	003fbf06 	br	527c <__sfvwrite_r+0x250>
    5380:	a80b883a 	mov	r5,r21
    5384:	900d883a 	mov	r6,r18
    5388:	00062100 	call	6210 <memmove>
    538c:	80800017 	ldw	r2,0(r16)
    5390:	800b883a 	mov	r5,r16
    5394:	9809883a 	mov	r4,r19
    5398:	1485883a 	add	r2,r2,r18
    539c:	80800015 	stw	r2,0(r16)
    53a0:	00047900 	call	4790 <_fflush_r>
    53a4:	103fc826 	beq	r2,zero,52c8 <__sfvwrite_r+0x29c>
    53a8:	003fe106 	br	5330 <__sfvwrite_r+0x304>
    53ac:	80800417 	ldw	r2,16(r16)
    53b0:	11c01236 	bltu	r2,r7,53fc <__sfvwrite_r+0x3d0>
    53b4:	81400517 	ldw	r5,20(r16)
    53b8:	91401036 	bltu	r18,r5,53fc <__sfvwrite_r+0x3d0>
    53bc:	00a00034 	movhi	r2,32768
    53c0:	902f883a 	mov	r23,r18
    53c4:	90800136 	bltu	r18,r2,53cc <__sfvwrite_r+0x3a0>
    53c8:	ddc00017 	ldw	r23,0(sp)
    53cc:	b809883a 	mov	r4,r23
    53d0:	000af5c0 	call	af5c <__modsi3>
    53d4:	80c00917 	ldw	r3,36(r16)
    53d8:	81400717 	ldw	r5,28(r16)
    53dc:	b88fc83a 	sub	r7,r23,r2
    53e0:	b00d883a 	mov	r6,r22
    53e4:	9809883a 	mov	r4,r19
    53e8:	183ee83a 	callr	r3
    53ec:	102f883a 	mov	r23,r2
    53f0:	00bfcf0e 	bge	zero,r2,5330 <__sfvwrite_r+0x304>
    53f4:	95e5c83a 	sub	r18,r18,r23
    53f8:	003f8b06 	br	5228 <__sfvwrite_r+0x1fc>
    53fc:	182f883a 	mov	r23,r3
    5400:	90c0012e 	bgeu	r18,r3,5408 <__sfvwrite_r+0x3dc>
    5404:	902f883a 	mov	r23,r18
    5408:	3809883a 	mov	r4,r7
    540c:	b80d883a 	mov	r6,r23
    5410:	b00b883a 	mov	r5,r22
    5414:	00062100 	call	6210 <memmove>
    5418:	80c00217 	ldw	r3,8(r16)
    541c:	81c00017 	ldw	r7,0(r16)
    5420:	1dc7c83a 	sub	r3,r3,r23
    5424:	3dcf883a 	add	r7,r7,r23
    5428:	80c00215 	stw	r3,8(r16)
    542c:	81c00015 	stw	r7,0(r16)
    5430:	183ff01e 	bne	r3,zero,53f4 <__sfvwrite_r+0x3c8>
    5434:	800b883a 	mov	r5,r16
    5438:	9809883a 	mov	r4,r19
    543c:	00047900 	call	4790 <_fflush_r>
    5440:	103fec26 	beq	r2,zero,53f4 <__sfvwrite_r+0x3c8>
    5444:	003fba06 	br	5330 <__sfvwrite_r+0x304>
    5448:	9029883a 	mov	r20,r18
    544c:	902b883a 	mov	r21,r18
    5450:	003f6a06 	br	51fc <__sfvwrite_r+0x1d0>
    5454:	b00d883a 	mov	r6,r22
    5458:	a80b883a 	mov	r5,r21
    545c:	00062100 	call	6210 <memmove>
    5460:	80c00217 	ldw	r3,8(r16)
    5464:	80800017 	ldw	r2,0(r16)
    5468:	b025883a 	mov	r18,r22
    546c:	1d87c83a 	sub	r3,r3,r22
    5470:	1585883a 	add	r2,r2,r22
    5474:	80c00215 	stw	r3,8(r16)
    5478:	80800015 	stw	r2,0(r16)
    547c:	003f9206 	br	52c8 <__sfvwrite_r+0x29c>
    5480:	a0800044 	addi	r2,r20,1
    5484:	102f883a 	mov	r23,r2
    5488:	003f7d06 	br	5280 <__sfvwrite_r+0x254>
    548c:	280d883a 	mov	r6,r5
    5490:	200b883a 	mov	r5,r4
    5494:	9809883a 	mov	r4,r19
    5498:	000765c0 	call	765c <_realloc_r>
    549c:	1007883a 	mov	r3,r2
    54a0:	103f4e1e 	bne	r2,zero,51dc <__sfvwrite_r+0x1b0>
    54a4:	81400417 	ldw	r5,16(r16)
    54a8:	9809883a 	mov	r4,r19
    54ac:	0004d240 	call	4d24 <_free_r>
    54b0:	8080030b 	ldhu	r2,12(r16)
    54b4:	00c00304 	movi	r3,12
    54b8:	98c00015 	stw	r3,0(r19)
    54bc:	10bfdfcc 	andi	r2,r2,65407
    54c0:	003f9c06 	br	5334 <__sfvwrite_r+0x308>
    54c4:	00c00304 	movi	r3,12
    54c8:	8080030b 	ldhu	r2,12(r16)
    54cc:	98c00015 	stw	r3,0(r19)
    54d0:	003f9806 	br	5334 <__sfvwrite_r+0x308>

000054d4 <_fwalk>:
    54d4:	defffa04 	addi	sp,sp,-24
    54d8:	dd000415 	stw	r20,16(sp)
    54dc:	dcc00315 	stw	r19,12(sp)
    54e0:	dc800215 	stw	r18,8(sp)
    54e4:	dfc00515 	stw	ra,20(sp)
    54e8:	dc400115 	stw	r17,4(sp)
    54ec:	dc000015 	stw	r16,0(sp)
    54f0:	2827883a 	mov	r19,r5
    54f4:	2480b804 	addi	r18,r4,736
    54f8:	0029883a 	mov	r20,zero
    54fc:	94400117 	ldw	r17,4(r18)
    5500:	94000217 	ldw	r16,8(r18)
    5504:	8c7fffc4 	addi	r17,r17,-1
    5508:	88000d16 	blt	r17,zero,5540 <_fwalk+0x6c>
    550c:	8080030b 	ldhu	r2,12(r16)
    5510:	8c7fffc4 	addi	r17,r17,-1
    5514:	108000b0 	cmpltui	r2,r2,2
    5518:	1000061e 	bne	r2,zero,5534 <_fwalk+0x60>
    551c:	8080038f 	ldh	r2,14(r16)
    5520:	8009883a 	mov	r4,r16
    5524:	10bfffe0 	cmpeqi	r2,r2,-1
    5528:	1000021e 	bne	r2,zero,5534 <_fwalk+0x60>
    552c:	983ee83a 	callr	r19
    5530:	a0a8b03a 	or	r20,r20,r2
    5534:	88bfffd8 	cmpnei	r2,r17,-1
    5538:	84001a04 	addi	r16,r16,104
    553c:	103ff31e 	bne	r2,zero,550c <_fwalk+0x38>
    5540:	94800017 	ldw	r18,0(r18)
    5544:	903fed1e 	bne	r18,zero,54fc <_fwalk+0x28>
    5548:	a005883a 	mov	r2,r20
    554c:	dfc00517 	ldw	ra,20(sp)
    5550:	dd000417 	ldw	r20,16(sp)
    5554:	dcc00317 	ldw	r19,12(sp)
    5558:	dc800217 	ldw	r18,8(sp)
    555c:	dc400117 	ldw	r17,4(sp)
    5560:	dc000017 	ldw	r16,0(sp)
    5564:	dec00604 	addi	sp,sp,24
    5568:	f800283a 	ret

0000556c <_fwalk_reent>:
    556c:	defff904 	addi	sp,sp,-28
    5570:	dd400515 	stw	r21,20(sp)
    5574:	dd000415 	stw	r20,16(sp)
    5578:	dcc00315 	stw	r19,12(sp)
    557c:	dc800215 	stw	r18,8(sp)
    5580:	dfc00615 	stw	ra,24(sp)
    5584:	dc400115 	stw	r17,4(sp)
    5588:	dc000015 	stw	r16,0(sp)
    558c:	2025883a 	mov	r18,r4
    5590:	2829883a 	mov	r20,r5
    5594:	24c0b804 	addi	r19,r4,736
    5598:	002b883a 	mov	r21,zero
    559c:	9c400117 	ldw	r17,4(r19)
    55a0:	9c000217 	ldw	r16,8(r19)
    55a4:	8c7fffc4 	addi	r17,r17,-1
    55a8:	88000e16 	blt	r17,zero,55e4 <_fwalk_reent+0x78>
    55ac:	8080030b 	ldhu	r2,12(r16)
    55b0:	8c7fffc4 	addi	r17,r17,-1
    55b4:	108000b0 	cmpltui	r2,r2,2
    55b8:	1000071e 	bne	r2,zero,55d8 <_fwalk_reent+0x6c>
    55bc:	8080038f 	ldh	r2,14(r16)
    55c0:	800b883a 	mov	r5,r16
    55c4:	9009883a 	mov	r4,r18
    55c8:	10bfffe0 	cmpeqi	r2,r2,-1
    55cc:	1000021e 	bne	r2,zero,55d8 <_fwalk_reent+0x6c>
    55d0:	a03ee83a 	callr	r20
    55d4:	a8aab03a 	or	r21,r21,r2
    55d8:	88bfffd8 	cmpnei	r2,r17,-1
    55dc:	84001a04 	addi	r16,r16,104
    55e0:	103ff21e 	bne	r2,zero,55ac <_fwalk_reent+0x40>
    55e4:	9cc00017 	ldw	r19,0(r19)
    55e8:	983fec1e 	bne	r19,zero,559c <_fwalk_reent+0x30>
    55ec:	a805883a 	mov	r2,r21
    55f0:	dfc00617 	ldw	ra,24(sp)
    55f4:	dd400517 	ldw	r21,20(sp)
    55f8:	dd000417 	ldw	r20,16(sp)
    55fc:	dcc00317 	ldw	r19,12(sp)
    5600:	dc800217 	ldw	r18,8(sp)
    5604:	dc400117 	ldw	r17,4(sp)
    5608:	dc000017 	ldw	r16,0(sp)
    560c:	dec00704 	addi	sp,sp,28
    5610:	f800283a 	ret

00005614 <__localeconv_l>:
    5614:	20803c04 	addi	r2,r4,240
    5618:	f800283a 	ret

0000561c <_localeconv_r>:
    561c:	00800074 	movhi	r2,1
    5620:	10854404 	addi	r2,r2,5392
    5624:	f800283a 	ret

00005628 <localeconv>:
    5628:	00800074 	movhi	r2,1
    562c:	10854404 	addi	r2,r2,5392
    5630:	f800283a 	ret

00005634 <__smakebuf_r>:
    5634:	2880030b 	ldhu	r2,12(r5)
    5638:	deffe804 	addi	sp,sp,-96
    563c:	dc001215 	stw	r16,72(sp)
    5640:	dfc01715 	stw	ra,92(sp)
    5644:	dd001615 	stw	r20,88(sp)
    5648:	dcc01515 	stw	r19,84(sp)
    564c:	dc801415 	stw	r18,80(sp)
    5650:	dc401315 	stw	r17,76(sp)
    5654:	10c0008c 	andi	r3,r2,2
    5658:	2821883a 	mov	r16,r5
    565c:	18000d26 	beq	r3,zero,5694 <__smakebuf_r+0x60>
    5660:	288010c4 	addi	r2,r5,67
    5664:	28800015 	stw	r2,0(r5)
    5668:	28800415 	stw	r2,16(r5)
    566c:	00800044 	movi	r2,1
    5670:	28800515 	stw	r2,20(r5)
    5674:	dfc01717 	ldw	ra,92(sp)
    5678:	dd001617 	ldw	r20,88(sp)
    567c:	dcc01517 	ldw	r19,84(sp)
    5680:	dc801417 	ldw	r18,80(sp)
    5684:	dc401317 	ldw	r17,76(sp)
    5688:	dc001217 	ldw	r16,72(sp)
    568c:	dec01804 	addi	sp,sp,96
    5690:	f800283a 	ret
    5694:	2940038f 	ldh	r5,14(r5)
    5698:	2023883a 	mov	r17,r4
    569c:	28002816 	blt	r5,zero,5740 <__smakebuf_r+0x10c>
    56a0:	d80d883a 	mov	r6,sp
    56a4:	000985c0 	call	985c <_fstat_r>
    56a8:	10002416 	blt	r2,zero,573c <__smakebuf_r+0x108>
    56ac:	d8800117 	ldw	r2,4(sp)
    56b0:	10bc000c 	andi	r2,r2,61440
    56b4:	10880018 	cmpnei	r2,r2,8192
    56b8:	1000421e 	bne	r2,zero,57c4 <__smakebuf_r+0x190>
    56bc:	8140038f 	ldh	r5,14(r16)
    56c0:	8809883a 	mov	r4,r17
    56c4:	00098bc0 	call	98bc <_isatty_r>
    56c8:	10000826 	beq	r2,zero,56ec <__smakebuf_r+0xb8>
    56cc:	8080030b 	ldhu	r2,12(r16)
    56d0:	80c010c4 	addi	r3,r16,67
    56d4:	80c00015 	stw	r3,0(r16)
    56d8:	10800054 	ori	r2,r2,1
    56dc:	8080030d 	sth	r2,12(r16)
    56e0:	00800044 	movi	r2,1
    56e4:	80c00415 	stw	r3,16(r16)
    56e8:	80800515 	stw	r2,20(r16)
    56ec:	04c00044 	movi	r19,1
    56f0:	05010004 	movi	r20,1024
    56f4:	04820004 	movi	r18,2048
    56f8:	a00b883a 	mov	r5,r20
    56fc:	8809883a 	mov	r4,r17
    5700:	00058600 	call	5860 <_malloc_r>
    5704:	10001726 	beq	r2,zero,5764 <__smakebuf_r+0x130>
    5708:	80c0030b 	ldhu	r3,12(r16)
    570c:	01000034 	movhi	r4,0
    5710:	21121f04 	addi	r4,r4,18556
    5714:	89000f15 	stw	r4,60(r17)
    5718:	18c02014 	ori	r3,r3,128
    571c:	80c0030d 	sth	r3,12(r16)
    5720:	80800015 	stw	r2,0(r16)
    5724:	80800415 	stw	r2,16(r16)
    5728:	85000515 	stw	r20,20(r16)
    572c:	98001d1e 	bne	r19,zero,57a4 <__smakebuf_r+0x170>
    5730:	90e4b03a 	or	r18,r18,r3
    5734:	8480030d 	sth	r18,12(r16)
    5738:	003fce06 	br	5674 <__smakebuf_r+0x40>
    573c:	8080030b 	ldhu	r2,12(r16)
    5740:	1080200c 	andi	r2,r2,128
    5744:	0027883a 	mov	r19,zero
    5748:	10001326 	beq	r2,zero,5798 <__smakebuf_r+0x164>
    574c:	05001004 	movi	r20,64
    5750:	a00b883a 	mov	r5,r20
    5754:	8809883a 	mov	r4,r17
    5758:	0025883a 	mov	r18,zero
    575c:	00058600 	call	5860 <_malloc_r>
    5760:	103fe91e 	bne	r2,zero,5708 <__smakebuf_r+0xd4>
    5764:	8080030b 	ldhu	r2,12(r16)
    5768:	10c0800c 	andi	r3,r2,512
    576c:	183fc11e 	bne	r3,zero,5674 <__smakebuf_r+0x40>
    5770:	00ffff04 	movi	r3,-4
    5774:	10c4703a 	and	r2,r2,r3
    5778:	10800094 	ori	r2,r2,2
    577c:	80c010c4 	addi	r3,r16,67
    5780:	8080030d 	sth	r2,12(r16)
    5784:	00800044 	movi	r2,1
    5788:	80c00015 	stw	r3,0(r16)
    578c:	80c00415 	stw	r3,16(r16)
    5790:	80800515 	stw	r2,20(r16)
    5794:	003fb706 	br	5674 <__smakebuf_r+0x40>
    5798:	05010004 	movi	r20,1024
    579c:	0025883a 	mov	r18,zero
    57a0:	003fd506 	br	56f8 <__smakebuf_r+0xc4>
    57a4:	8140038f 	ldh	r5,14(r16)
    57a8:	8809883a 	mov	r4,r17
    57ac:	00098bc0 	call	98bc <_isatty_r>
    57b0:	80c0030b 	ldhu	r3,12(r16)
    57b4:	103fde26 	beq	r2,zero,5730 <__smakebuf_r+0xfc>
    57b8:	18ffff0c 	andi	r3,r3,65532
    57bc:	18c00054 	ori	r3,r3,1
    57c0:	003fdb06 	br	5730 <__smakebuf_r+0xfc>
    57c4:	0027883a 	mov	r19,zero
    57c8:	05010004 	movi	r20,1024
    57cc:	04820004 	movi	r18,2048
    57d0:	003fc906 	br	56f8 <__smakebuf_r+0xc4>

000057d4 <__swhatbuf_r>:
    57d4:	deffea04 	addi	sp,sp,-88
    57d8:	dc001215 	stw	r16,72(sp)
    57dc:	2821883a 	mov	r16,r5
    57e0:	2940038f 	ldh	r5,14(r5)
    57e4:	dc801415 	stw	r18,80(sp)
    57e8:	dc401315 	stw	r17,76(sp)
    57ec:	dfc01515 	stw	ra,84(sp)
    57f0:	3023883a 	mov	r17,r6
    57f4:	3825883a 	mov	r18,r7
    57f8:	28001016 	blt	r5,zero,583c <__swhatbuf_r+0x68>
    57fc:	d80d883a 	mov	r6,sp
    5800:	000985c0 	call	985c <_fstat_r>
    5804:	10000d16 	blt	r2,zero,583c <__swhatbuf_r+0x68>
    5808:	d8c00117 	ldw	r3,4(sp)
    580c:	01010004 	movi	r4,1024
    5810:	00820004 	movi	r2,2048
    5814:	18fc000c 	andi	r3,r3,61440
    5818:	18c80020 	cmpeqi	r3,r3,8192
    581c:	90c00015 	stw	r3,0(r18)
    5820:	89000015 	stw	r4,0(r17)
    5824:	dfc01517 	ldw	ra,84(sp)
    5828:	dc801417 	ldw	r18,80(sp)
    582c:	dc401317 	ldw	r17,76(sp)
    5830:	dc001217 	ldw	r16,72(sp)
    5834:	dec01604 	addi	sp,sp,88
    5838:	f800283a 	ret
    583c:	8080030b 	ldhu	r2,12(r16)
    5840:	0007883a 	mov	r3,zero
    5844:	1080200c 	andi	r2,r2,128
    5848:	10000326 	beq	r2,zero,5858 <__swhatbuf_r+0x84>
    584c:	01001004 	movi	r4,64
    5850:	0005883a 	mov	r2,zero
    5854:	003ff106 	br	581c <__swhatbuf_r+0x48>
    5858:	01010004 	movi	r4,1024
    585c:	003fef06 	br	581c <__swhatbuf_r+0x48>

00005860 <_malloc_r>:
    5860:	defff604 	addi	sp,sp,-40
    5864:	dc400115 	stw	r17,4(sp)
    5868:	2c4002c4 	addi	r17,r5,11
    586c:	dc800215 	stw	r18,8(sp)
    5870:	dfc00915 	stw	ra,36(sp)
    5874:	df000815 	stw	fp,32(sp)
    5878:	ddc00715 	stw	r23,28(sp)
    587c:	dd800615 	stw	r22,24(sp)
    5880:	dd400515 	stw	r21,20(sp)
    5884:	dd000415 	stw	r20,16(sp)
    5888:	dcc00315 	stw	r19,12(sp)
    588c:	dc000015 	stw	r16,0(sp)
    5890:	888005e8 	cmpgeui	r2,r17,23
    5894:	2025883a 	mov	r18,r4
    5898:	1000261e 	bne	r2,zero,5934 <_malloc_r+0xd4>
    589c:	29400468 	cmpgeui	r5,r5,17
    58a0:	28008d1e 	bne	r5,zero,5ad8 <_malloc_r+0x278>
    58a4:	000e0740 	call	e074 <__malloc_lock>
    58a8:	04400404 	movi	r17,16
    58ac:	00800604 	movi	r2,24
    58b0:	01c00084 	movi	r7,2
    58b4:	04c00074 	movhi	r19,1
    58b8:	9cc40604 	addi	r19,r19,4120
    58bc:	9885883a 	add	r2,r19,r2
    58c0:	14000117 	ldw	r16,4(r2)
    58c4:	10fffe04 	addi	r3,r2,-8
    58c8:	80c0cb26 	beq	r16,r3,5bf8 <_malloc_r+0x398>
    58cc:	80800117 	ldw	r2,4(r16)
    58d0:	81000317 	ldw	r4,12(r16)
    58d4:	00ffff04 	movi	r3,-4
    58d8:	10c4703a 	and	r2,r2,r3
    58dc:	81400217 	ldw	r5,8(r16)
    58e0:	8085883a 	add	r2,r16,r2
    58e4:	10c00117 	ldw	r3,4(r2)
    58e8:	29000315 	stw	r4,12(r5)
    58ec:	21400215 	stw	r5,8(r4)
    58f0:	18c00054 	ori	r3,r3,1
    58f4:	10c00115 	stw	r3,4(r2)
    58f8:	9009883a 	mov	r4,r18
    58fc:	000e0980 	call	e098 <__malloc_unlock>
    5900:	80800204 	addi	r2,r16,8
    5904:	dfc00917 	ldw	ra,36(sp)
    5908:	df000817 	ldw	fp,32(sp)
    590c:	ddc00717 	ldw	r23,28(sp)
    5910:	dd800617 	ldw	r22,24(sp)
    5914:	dd400517 	ldw	r21,20(sp)
    5918:	dd000417 	ldw	r20,16(sp)
    591c:	dcc00317 	ldw	r19,12(sp)
    5920:	dc800217 	ldw	r18,8(sp)
    5924:	dc400117 	ldw	r17,4(sp)
    5928:	dc000017 	ldw	r16,0(sp)
    592c:	dec00a04 	addi	sp,sp,40
    5930:	f800283a 	ret
    5934:	00bffe04 	movi	r2,-8
    5938:	88a2703a 	and	r17,r17,r2
    593c:	88006616 	blt	r17,zero,5ad8 <_malloc_r+0x278>
    5940:	89406536 	bltu	r17,r5,5ad8 <_malloc_r+0x278>
    5944:	000e0740 	call	e074 <__malloc_lock>
    5948:	88807e28 	cmpgeui	r2,r17,504
    594c:	1000ef26 	beq	r2,zero,5d0c <_malloc_r+0x4ac>
    5950:	8804d27a 	srli	r2,r17,9
    5954:	10006426 	beq	r2,zero,5ae8 <_malloc_r+0x288>
    5958:	10c00168 	cmpgeui	r3,r2,5
    595c:	1800c31e 	bne	r3,zero,5c6c <_malloc_r+0x40c>
    5960:	8804d1ba 	srli	r2,r17,6
    5964:	11c00e44 	addi	r7,r2,57
    5968:	380890fa 	slli	r4,r7,3
    596c:	12000e04 	addi	r8,r2,56
    5970:	04c00074 	movhi	r19,1
    5974:	9cc40604 	addi	r19,r19,4120
    5978:	9909883a 	add	r4,r19,r4
    597c:	24000117 	ldw	r16,4(r4)
    5980:	213ffe04 	addi	r4,r4,-8
    5984:	24000b26 	beq	r4,r16,59b4 <_malloc_r+0x154>
    5988:	01bfff04 	movi	r6,-4
    598c:	00000306 	br	599c <_malloc_r+0x13c>
    5990:	1800970e 	bge	r3,zero,5bf0 <_malloc_r+0x390>
    5994:	84000317 	ldw	r16,12(r16)
    5998:	24000626 	beq	r4,r16,59b4 <_malloc_r+0x154>
    599c:	80800117 	ldw	r2,4(r16)
    59a0:	1184703a 	and	r2,r2,r6
    59a4:	1447c83a 	sub	r3,r2,r17
    59a8:	19400408 	cmpgei	r5,r3,16
    59ac:	283ff826 	beq	r5,zero,5990 <_malloc_r+0x130>
    59b0:	400f883a 	mov	r7,r8
    59b4:	9c000417 	ldw	r16,16(r19)
    59b8:	02400074 	movhi	r9,1
    59bc:	4a440804 	addi	r9,r9,4128
    59c0:	82407f26 	beq	r16,r9,5bc0 <_malloc_r+0x360>
    59c4:	80800117 	ldw	r2,4(r16)
    59c8:	00ffff04 	movi	r3,-4
    59cc:	10c4703a 	and	r2,r2,r3
    59d0:	1447c83a 	sub	r3,r2,r17
    59d4:	19000410 	cmplti	r4,r3,16
    59d8:	2000cf26 	beq	r4,zero,5d18 <_malloc_r+0x4b8>
    59dc:	9a400515 	stw	r9,20(r19)
    59e0:	9a400415 	stw	r9,16(r19)
    59e4:	1800c10e 	bge	r3,zero,5cec <_malloc_r+0x48c>
    59e8:	10c08028 	cmpgeui	r3,r2,512
    59ec:	99400117 	ldw	r5,4(r19)
    59f0:	1800851e 	bne	r3,zero,5c08 <_malloc_r+0x3a8>
    59f4:	1006d0fa 	srli	r3,r2,3
    59f8:	1008d17a 	srli	r4,r2,5
    59fc:	18800044 	addi	r2,r3,1
    5a00:	100490fa 	slli	r2,r2,3
    5a04:	00c00044 	movi	r3,1
    5a08:	1906983a 	sll	r3,r3,r4
    5a0c:	9885883a 	add	r2,r19,r2
    5a10:	11000017 	ldw	r4,0(r2)
    5a14:	28cab03a 	or	r5,r5,r3
    5a18:	10fffe04 	addi	r3,r2,-8
    5a1c:	80c00315 	stw	r3,12(r16)
    5a20:	81000215 	stw	r4,8(r16)
    5a24:	99400115 	stw	r5,4(r19)
    5a28:	14000015 	stw	r16,0(r2)
    5a2c:	24000315 	stw	r16,12(r4)
    5a30:	3805d0ba 	srai	r2,r7,2
    5a34:	01000044 	movi	r4,1
    5a38:	2088983a 	sll	r4,r4,r2
    5a3c:	29002e36 	bltu	r5,r4,5af8 <_malloc_r+0x298>
    5a40:	2144703a 	and	r2,r4,r5
    5a44:	10000a1e 	bne	r2,zero,5a70 <_malloc_r+0x210>
    5a48:	2109883a 	add	r4,r4,r4
    5a4c:	00bfff04 	movi	r2,-4
    5a50:	3884703a 	and	r2,r7,r2
    5a54:	2146703a 	and	r3,r4,r5
    5a58:	11c00104 	addi	r7,r2,4
    5a5c:	1800041e 	bne	r3,zero,5a70 <_malloc_r+0x210>
    5a60:	2109883a 	add	r4,r4,r4
